                    ;============================================================================
                    ; Монитор компьютера Радио-86РК (ПЗУ 2кБ)
                    ;============================================================================

                    ;----------------------------------------------------------------------------
                    ; Адреса регистров периферийных БИС
                    ;----------------------------------------------------------------------------

                    ; ППА К580ВВ55 D20 (клавиатура)
=8000               vv55_port_a      equ 8000h            ; Порт A клавиатуры (шина сканирования)
=8001               vv55_port_b      equ 8001h            ; Порт B клавиатуры (состояние клавиш)
=8002               vv55_port_c      equ 8002h            ; Порт C клавиатуры (вспомогательные клавиши, магнитофон)
=8003               vv55_ctrl        equ 8003h            ; Регистр управляющего слова клавиатуры

                    ; ППА К580ВВ55 D14 (дополнительный, для ROM-диска)
=A000               vv55_d14_port_a  equ 0A000h           ; Порт A D14 (шина данных ROM-диска)
=A001               vv55_d14_port_b  equ 0A001h           ; Порт B D14 (мл. байт адреса ROM-диска)
=A002               vv55_d14_port_c  equ 0A002h           ; Порт C D14 (ст. байт адреса ROM-диска)
=A003               vv55_d14_ctrl    equ 0A003h           ; Регистр управляющего слова D14

                    ; Контроллер ЭЛТ К580ВГ75
=C000               vg75_params      equ 0C000h           ; Регистр параметров
=C001               vg75_cmd_reg     equ 0C001h           ; Регистр команд (запись) / состояния (чтение)

                    ; Контроллер ПДП К580ВТ57
=E004               vt57_ch2_addr    equ 0E004h           ; Регистр адреса канала 2
=E005               vt57_ch2_ctrl    equ 0E005h           ; Регистр управления канала 2
=E008               vt57_mode        equ 0E008h           ; Регистр режима контроллера ПДП

                    ;----------------------------------------------------------------------------
                    ; Стандартные константы
                    ;----------------------------------------------------------------------------
=0924               video_mem_size   equ 78*30            ; Количество байт в видео ОЗУ (2340)
=0030               rst_6_addr       equ 30h              ; Адрес перехода по команде RST 6
=00E6               sync_byte        equ 0E6h             ; Синхробайт для чтения с магнитофона
=002A               const_read       equ 2Ah              ; Стандартная константа чтения с магнитофона
=001D               const_write      equ 1Dh              ; Стандартная константа записи на магнитофон
=5003               kb_click         equ 5003h            ; Щелчок от нажатия клавиши (B=50h, C=03h)
=05F0               beep             equ 5F0h             ; Звуковой сигнал (B=05h, C=F0h)
=00E0               first_kb_delay   equ 224              ; Начальная задержка автоповтора клавиатуры
=0040               regular_kb_delay equ 64               ; Стандартная задержка автоповтора клавиатуры
=0015               bounce           equ 21               ; Задержка для устранения дребезга контактов

                    ;----------------------------------------------------------------------------
                    ; Область переменных Монитора (для ОЗУ 32кБ)
                    ;----------------------------------------------------------------------------
=7600               monitor_area     equ 7600h

=75FF               memory_top       equ monitor_area-1    ; 75FFh - Верхняя граница свободной памяти
=7600               cursor_addr      equ monitor_area+0    ; 7600h - Адрес знакоместа курсора в видео ОЗУ
=7602               cursor_xy        equ monitor_area+2    ; 7602h - Координаты курсора (ст. - Y, мл. - X)
=7604               ap2_seq          equ monitor_area+4    ; 7604h - Номер байта в АР2-последовательности
=7605               pressed_key      equ monitor_area+5    ; 7605h - FF - клавиша нажата, 0 - не нажата
=7606               ruslat_flag      equ monitor_area+6    ; 7606h - Флаг РУС/ЛАТ: 0 - лат, FF - рус
=7609               keyboard_repeat  equ monitor_area+9    ; 7609h - Мл. байт - код клавиши, ст. - счетчик автоповтора
=760B               released         equ monitor_area+0Bh  ; 760Bh - Признак, что клавиша была отпущена
=760D               temp_sp          equ monitor_area+0Dh  ; 760Dh - Временное хранение указателя стека
=7614               pc_storage       equ monitor_area+14h  ; 7614h - Хранение адреса останова (PC)
=7616               hl_storage       equ monitor_area+16h  ; 7616h - Хранение HL
=7618               bc_storage       equ monitor_area+18h  ; 7618h - Хранение BC
=761A               de_storage       equ monitor_area+1Ah  ; 761Ah - Хранение DE
=761C               sp_storage       equ monitor_area+1Ch  ; 761Ch - Хранение SP
=761E               af_storage       equ monitor_area+1Eh  ; 761Eh - Хранение A и PSW
=7623               stop_addr        equ monitor_area+23h  ; 7623h - Адрес останова отлаживаемой программы
=7625               stop_addr_value  equ monitor_area+25h  ; 7625h - Байт по адресу останова (сохраненный)
=7626               jump_to_go       equ monitor_area+26h  ; 7626h - Команда JMP (0C3h) для директивы G
=7627               cmd_parameter_1  equ monitor_area+27h  ; 7627h - Первый параметр команды
=7629               cmd_parameter_2  equ monitor_area+29h  ; 7629h - Второй параметр команды
=762B               cmd_parameter_3  equ monitor_area+2Bh  ; 762Bh - Третий параметр команды
=762D               param_2_present  equ monitor_area+2Dh  ; 762Dh - Второй параметр присутствует = FF
=762E               tape_polarity    equ monitor_area+2Eh  ; 762Eh - Полярность входных данных с магнитофона
=762F               tape_read_const  equ monitor_area+2Fh  ; 762Fh - Константа чтения с магнитофона
=7630               tape_write_const equ monitor_area+30h  ; 7630h - Константа записи на магнитофон
=7631               memory_limit     equ monitor_area+31h  ; 7631h - Верхний адрес свободной памяти
=7633               kbd_buf          equ monitor_area+33h  ; 7633h - Буфер клавиатуры (32 байта)
=765F               monitor_area_end equ monitor_area+5Fh  ; 765Fh - Конец области переменных
=76CF               stack_bottom     equ monitor_area+0CFh ; 76CFh - Дно стека
=76D0               video_memory     equ monitor_area+0D0h ; 76D0h - Начало видеопамяти
=7FF4               video_memory_end equ video_memory+video_mem_size ; 7FF4h - Конец видеопамяти

                    ; Этот адрес используется как обращение к расширению ПЗУ Монитора,
                    ; которое так и не было реализовано. Из-за упрощенного декодирования
                    ; адресов ПЗУ в реальном Радио-86РК с ПЗУ 2кБ переход происходит
                    ; на "холодный" старт Монитора (start).
                    ; Расширять ПЗУ можно вниз, вплоть до адреса 0E000h (8кБ)
                    ; без каких-либо схемотехнических изменений.
=F000               ext_f000         equ 0F000h

                    ;============================================================================
F800:                                org 0F800h
                    ;============================================================================

                    ;----------------------------------------------------------------------------
                    ; "Холодный" старт программы Монитор (F800h)
                    ;----------------------------------------------------------------------------
F800:               start:                                   ; F800
F800: C3 36 F8                       jmp     entry_start

                    ;----------------------------------------------------------------------------
                    ; Таблица стандартных подпрограмм Монитора
                    ;----------------------------------------------------------------------------
F803: C3 63 FE      getc:            jmp     entry_getc      ; F803 - ввод символа с клавиатуры
F806: C3 98 FB      inpb:            jmp     entry_inpb      ; F806 - ввод байта с магнитофона
F809: C3 BA FC      putc:            jmp     entry_putc      ; F809 - вывод символа на экран
F80C: C3 46 FC      outb:            jmp     entry_outb      ; F80C - вывод байта на магнитофон
F80F: C3 BA FC      temp:            jmp     entry_putc      ; F80F - резерв (дублирует putc)
F812: C3 01 FE      kbhit:           jmp     entry_kbhit     ; F812 - опрос состояния клавиатуры
F815: C3 A5 FC      hexb:            jmp     entry_hexb      ; F815 - вывод байта в hex на экран
F818: C3 22 F9      puts:            jmp     entry_puts      ; F818 - вывод строки на экран
F81B: C3 72 FE      scan_kbd:        jmp     entry_scan_kbd  ; F81B - сканирование клавиатуры
F81E: C3 7B FA      getxy:           jmp     entry_getxy     ; F81E - получить координаты курсора
F821: C3 7F FA      curc:            jmp     entry_curc      ; F821 - получить символ под курсором
F824: C3 B6 FA      inpblock:        jmp     entry_inpblock  ; F824 - ввод блока с магнитофона
F827: C3 49 FB      outblock:        jmp     entry_outblock  ; F827 - вывод блока на магнитофон
F82A: C3 16 FB      chksum:          jmp     entry_chksum    ; F82A - подсчет контрольной суммы
F82D: C3 CE FA      video:           jmp     entry_video     ; F82D - настройка видеоконтроллера
F830: C3 52 FF      getlim:          jmp     entry_getlim    ; F830 - получить границу памяти
F833: C3 56 FF      setlim:          jmp     entry_setlim    ; F833 - установить границу памяти

                    ;============================================================================
                    ; Инициализация компьютера (Холодный старт)
                    ;============================================================================
F836:               entry_start:                             ; F836
                    ; Настройка ППА клавиатуры D20: порт A - вывод, порт B - ввод,
                    ; C0-C4 - вывод, C5-C7 - ввод
F836: 3E 8A                          mvi     a, 8Ah
F838: 32 03 80                       sta     vv55_ctrl

                    ; Настраиваем указатель стека
F83B: 31 CF 76                       lxi     sp, stack_bottom

                    ; Настраиваем отображение видеопамяти на экране.
                    ; Это нужно делать в первую очередь, чтобы начать регенерацию ОЗУ
                    ; после сброса.
F83E: CD CE FA                       call    entry_video

                    ; Обнуляем массив служебных ячеек Монитора
F841: 21 00 76                       lxi     h, monitor_area
F844: 11 5F 76                       lxi     d, monitor_area_end
F847: 0E 00                          mvi     c, 0
F849: CD ED F9                       call    cmd_f   ; заполнить 'c' от hl до de

F84C: 21 CF 76                       lxi     h, stack_bottom
F84F: 22 1C 76                       shld    sp_storage

                    ; Выводим на экран начальное сообщение "РАДИО-86РК"
F852: 21 5A FF                       lxi     h, radio_prompt
F855: CD 22 F9                       call    entry_puts

                    ; Повторно настраиваем видеоконтроллер
F858: CD CE FA                       call    entry_video

                    ; Устанавливаем верхнюю границу свободной памяти
F85B: 21 FF 75                       lxi     h, memory_top
F85E: 22 31 76                       shld    memory_limit

                    ; Устанавливаем константы по умолчанию для чтения и записи на магнитофон
                    ; (L=2Ah - чтение, H=1Dh - запись, SHLD сохраняет L первым)
F861: 21 2A 1D                       lxi     h, const_write * 256 + const_read
F864: 22 2F 76                       shld    tape_read_const

                    ; Установка кода команды JMP для директивы G
F867: 3E C3                          mvi     a, 0C3h
F869: 32 26 76                       sta     jump_to_go

                    ;============================================================================
                    ; Выход на промт (Горячий старт)
                    ;============================================================================
F86C:               prompt_loop:                             ; F86C
F86C: 31 CF 76                       lxi     sp, stack_bottom

F86F: 21 66 FF                       lxi     h, prompt
F872: CD 22 F9                       call    entry_puts

                    ; После выхода из entry_puts в A всегда 0
F875: 32 02 80                       sta     vv55_port_c      ; Все 0 в порт C клавиатуры
F878: 3D                             dcr     a                ; A = FFh
F879: 32 02 A0                       sta     vv55_d14_port_c  ; Все 1 в порт C дополнительного ППА

                    ;============================================================================
                    ; Консольный процессор Монитора - ввод и выполнение команд
                    ;============================================================================
F87C: CD EE F8                       call    input_string
F87F: 21 6C F8                       lxi     h, prompt_loop
F882: E5                             push    h               ; Адрес возврата в стеке
F883: 21 33 76                       lxi     h, kbd_buf
F886: 7E                             mov     a, m            ; Первый символ команды

                    ; Команды без параметров
F887: FE 58                          cpi     'X'             ; Просмотр/изменение регистров
F889: CA D3 FF                       jz      print_regs
F88C: FE 55                          cpi     'U'             ; Резервная команда -> расширение ПЗУ
F88E: CA 00 F0                       jz      ext_f000

                    ; Получаем 3 параметра команды: 1 -> HL, 2 -> DE, 3 -> BC
F891: F5                             push    psw
F892: CD 2C F9                       call    parse_param
F895: 2A 2B 76                       lhld    cmd_parameter_3
F898: 4D                             mov     c, l
F899: 44                             mov     b, h
F89A: 2A 29 76                       lhld    cmd_parameter_2
F89D: EB                             xchg
F89E: 2A 27 76                       lhld    cmd_parameter_1
F8A1: F1                             pop     psw

                    ; Команды с параметрами
F8A2: FE 44                          cpi     'D'             ; dump - дамп памяти
F8A4: CA C5 F9                       jz      cmd_d
F8A7: FE 43                          cpi     'C'             ; compare - сравнение областей памяти
F8A9: CA D7 F9                       jz      cmd_c
F8AC: FE 46                          cpi     'F'             ; fill - заполнение области памяти
F8AE: CA ED F9                       jz      cmd_f
F8B1: FE 53                          cpi     'S'             ; search - поиск байта в памяти
F8B3: CA F4 F9                       jz      cmd_s
F8B6: FE 54                          cpi     'T'             ; transfer - пересылка области памяти
F8B8: CA FF F9                       jz      cmd_t
F8BB: FE 4D                          cpi     'M'             ; modify - изменение содержимого памяти
F8BD: CA 26 FA                       jz      cmd_m
F8C0: FE 47                          cpi     'G'             ; go - запуск программы
F8C2: CA 3F FA                       jz      cmd_g
F8C5: FE 49                          cpi     'I'             ; input - загрузка с магнитофона
F8C7: CA 86 FA                       jz      cmd_i
F8CA: FE 4F                          cpi     'O'             ; output - запись на магнитофон
F8CC: CA 2D FB                       jz      cmd_o
F8CF: FE 4C                          cpi     'L'             ; literal - дамп в символьном виде
F8D1: CA 08 FA                       jz      cmd_l
F8D4: FE 52                          cpi     'R'             ; read - загрузка из ROM-диска
F8D6: CA 68 FA                       jz      cmd_r

                    ; Нераспознанная команда -> переход на расширение ПЗУ
F8D9: C3 00 F0                       jmp     ext_f000

                    ;----------------------------------------------------------------------------
                    ; Удаление предыдущего символа в буфере ввода
                    ;----------------------------------------------------------------------------
F8DC:               back_kbd_buf:                            ; F8DC
F8DC: 3E 33                          mvi     a, kbd_buf & 0FFh
F8DE: BD                             cmp     l               ; Если это первый символ,
F8DF: CA F1 F8                       jz      input_next      ; то ничего не делать
F8E2: E5                             push    h
F8E3: 21 9E FF                       lxi     h, back_clear   ; Затереть предыдущий символ на экране
F8E6: CD 22 F9                       call    entry_puts
F8E9: E1                             pop     h
F8EA: 2B                             dcx     h
F8EB: C3 F3 F8                       jmp     kbd_buf_loop

                    ;----------------------------------------------------------------------------
                    ; Ввод строки с клавиатуры.
                    ; Вводим максимум 31 символ в буфер клавиатуры.
                    ; Особо обрабатываемые клавиши:
                    ;   [<-] и [ЗБ] - удаление последнего символа
                    ;   [.]         - выход на промт
                    ;   [ВК]        - успешный возврат из п/п
                    ;----------------------------------------------------------------------------
F8EE:               input_string:                            ; F8EE
F8EE: 21 33 76                       lxi     h, kbd_buf

F8F1:               input_next:                              ; F8F1
F8F1: 06 00                          mvi     b, 0            ; Признак: ничего не введено

F8F3:               kbd_buf_loop:                            ; F8F3
F8F3: CD 63 FE                       call    entry_getc

F8F6: FE 08                          cpi     8               ; Клавиша [<-]?
F8F8: CA DC F8                       jz      back_kbd_buf
F8FB: FE 7F                          cpi     7Fh             ; Клавиша [ЗБ]?
F8FD: CA DC F8                       jz      back_kbd_buf
F900: C4 B9 FC                       cnz     putc_from_a     ; Вывести символ на экран
F903: 77                             mov     m, a            ; Сохранить в буфере
F904: FE 0D                          cpi     0Dh             ; Клавиша [ВК]?
F906: CA 1A F9                       jz      input_string_end
F909: FE 2E                          cpi     '.'             ; Точка -> выход на промт
F90B: CA 6C F8                       jz      prompt_loop
F90E: 06 FF                          mvi     b, 0FFh         ; Признак: что-то введено
F910: 3E 52                          mvi     a, (kbd_buf+1Fh) & 0FFh
F912: BD                             cmp     l               ; Буфер полон?
F913: CA AE FA                       jz      print_error     ; Если полон, то ошибка (?)
F916: 23                             inx     h
F917: C3 F3 F8                       jmp     kbd_buf_loop

F91A:               input_string_end:                        ; F91A
F91A: 78                             mov     a, b            ; Флаг: CF=1 если что-то введено
F91B: 17                             ral
F91C: 11 33 76                       lxi     d, kbd_buf
F91F: 06 00                          mvi     b, 0
F921: C9                             ret

                    ;----------------------------------------------------------------------------
                    ; Вывод строки на экран.
                    ; Указатель на начало строки в HL. Строка завершается нулевым байтом.
                    ;----------------------------------------------------------------------------
F922:               entry_puts:                              ; F922
F922: 7E                             mov     a, m
F923: A7                             ana     a               ; Нулевой байт?
F924: C8                             rz                      ; Если да, то выход
F925: CD B9 FC                       call    putc_from_a
F928: 23                             inx     h
F929: C3 22 F9                       jmp     entry_puts

                    ;----------------------------------------------------------------------------
                    ; Анализ параметров команд Монитора.
                    ; Разбирает до 3 параметров, разделенных запятыми.
                    ;----------------------------------------------------------------------------
F92C:               parse_param:                                    ; F92C
F92C: 21 27 76                       lxi     h, cmd_parameter_1     ; Обнуляем область параметров
F92F: 11 2D 76                       lxi     d, cmd_parameter_1+2*3
F932: 0E 00                          mvi     c, 0
F934: CD ED F9                       call    cmd_f
F937: 11 34 76                       lxi     d, kbd_buf+1           ; Указатель на второй символ
F93A: CD 5A F9                       call    parse_hex              ; Получаем первый параметр
F93D: 22 27 76                       shld    cmd_parameter_1
F940: 22 29 76                       shld    cmd_parameter_2        ; По умолчанию = первому
F943: D8                             rc                             ; Если больше ничего, выходим

                    ; Признак наличия второго параметра (так как он может быть равен 0)
                    ; Здесь вводится признак наличия второго параметра.
                    ; Поскольку невведенные параметры у нас = 0, то признак указывает,
                    ; что второй параметр введен и возможно равен нулю
F944: 3E FF                          mvi     a, 0FFh
F946: 32 2D 76                       sta     param_2_present
F949: CD 5A F9                       call    parse_hex
F94C: 22 29 76                       shld    cmd_parameter_2
F94F: D8                             rc

F950: CD 5A F9                       call    parse_hex
F953: 22 2B 76                       shld    cmd_parameter_3
F956: D8                             rc

F957: C3 AE FA                       jmp     print_error       ; Лишние параметры -> ошибка

                    ;----------------------------------------------------------------------------
                    ; Обработка строки с hex-числом (параметром), на которую указывает DE.
                    ; Результат в HL. CF=1 если параметра не было (встретился ВК).
                    ;----------------------------------------------------------------------------
F95A:               parse_hex:                               ; F95A
F95A: 21 00 00                       lxi     h, 0

F95D:               parse_hex_loop:                          ; F95D
F95D: 1A                             ldax    d
F95E: 13                             inx     d
F95F: FE 0D                          cpi     0Dh             ; [ВК] - конец строки
F961: CA 8E F9                       jz      parse_hex_end
F964: FE 2C                          cpi     ','             ; Запятая - разделитель параметров
F966: C8                             rz
F967: FE 20                          cpi     ' '             ; Пробелы игнорируются
F969: CA 5D F9                       jz      parse_hex_loop
F96C: D6 30                          sui     '0'             ; Получаем цифру из кода символа
F96E: FA AE FA                       jm      print_error     ; Код < 30h -> ошибка
F971: FE 0A                          cpi     0Ah             ; Цифра 0-9?
F973: FA 82 F9                       jm      parse_hex_char
F976: FE 11                          cpi     11h             ; Код < 41h (A) -> ошибка
F978: FA AE FA                       jm      print_error
F97B: FE 17                          cpi     17h             ; Код > 46h (F) -> ошибка
F97D: F2 AE FA                       jp      print_error
F980: D6 07                          sui     7               ; Корректировка для цифр A-F

                    ; Добавляем очередную hex-цифру в число
F982:               parse_hex_char:                          ; F982
F982: 4F                             mov     c, a
F983: 29                             dad     h               ; Число * 16
F984: 29                             dad     h
F985: 29                             dad     h
F986: 29                             dad     h
F987: DA AE FA                       jc      print_error     ; Переполнение -> ошибка
F98A: 09                             dad     b               ; Прибавляем очередную цифру
F98B: C3 5D F9                       jmp     parse_hex_loop

                    ; Выход с признаком CF=1 (параметра не было)
F98E:               parse_hex_end:                           ; F98E
F98E: 37                             stc
F98F: C9                             ret

                    ;----------------------------------------------------------------------------
                    ; Сравнение регистровых пар HL и DE.
                    ; Если равны, устанавливается флаг Z.
                    ;----------------------------------------------------------------------------
F990:               cmp_hl_de:                               ; F990
F990: 7C                             mov     a, h
F991: BA                             cmp     d
F992: C0                             rnz
F993: 7D                             mov     a, l
F994: BB                             cmp     e
F995: C9                             ret

                    ;----------------------------------------------------------------------------
                    ; Проверка на окончание адреса + сканирование на нажатие [F4].
                    ;----------------------------------------------------------------------------
F996:               end_of_addr_or_f4:                       ; F996
F996: CD A4 F9                       call    check_press_f4

                    ;----------------------------------------------------------------------------
                    ; Инкремент текущего адреса с проверкой на конец.
                    ; Сравнивает HL с DE. Если равны - удаляет адрес возврата и выходит
                    ; к предыдущему вызывающему. Если не равны - инкремент HL.
                    ;----------------------------------------------------------------------------
F999:               cmp_hl_de_loop:                          ; F999
F999: CD 90 F9                       call    cmp_hl_de
F99C: C2 A2 F9                       jnz     cmp_hl_de_end

F99F:               cmp_hl_de_ret:                           ; F99F
F99F: 33                             inx     sp              ; Удаляем текущий адрес возврата
F9A0: 33                             inx     sp
F9A1: C9                             ret

F9A2:               cmp_hl_de_end:                           ; F9A2
F9A2: 23                             inx     h
F9A3: C9                             ret

                    ;----------------------------------------------------------------------------
                    ; Проверка на нажатие клавиши [F4] (код 3) для прерывания команды.
                    ; Клавиша [РУС/ЛАТ] приостанавливает вывод на экран (удержание).
                    ; [F4] -> выход на промт со знаком вопроса.
                    ; Подпрограмма применяется для выхода из затянувшейся по времени команды.
                    ; Так же можно использовать для приостановки вывода на экран удержание
                    ; клавиши [РУС/ЛАТ], поскольку она срабатывает при отпускании.
                    ; Если клавиша [F4] не нажата, происходит просто выход из подпрограммы.
                    ; Если нажата, то выход на промт с выдачей знака вопроса.
                    ;----------------------------------------------------------------------------
F9A4:               check_press_f4:                          ; F9A4
F9A4: CD 72 FE                       call    entry_scan_kbd
F9A7: FE 03                          cpi     3               ; Код клавиши [F4]
F9A9: C0                             rnz
F9AA: CD CE FA                       call    entry_video     ; Восстанавливаем видео
F9AD: C3 AE FA                       jmp     print_error

                    ;----------------------------------------------------------------------------
                    ; Переход на новую строку с отступом в 4 символа для вывода адреса.
                    ;----------------------------------------------------------------------------
F9B0:               print_next_line_prefix:                  ; F9B0
F9B0: E5                             push    h
F9B1: 21 6C FF                       lxi     h, next_line_prefix
F9B4: CD 22 F9                       call    entry_puts
F9B7: E1                             pop     h
F9B8: C9                             ret

                    ;----------------------------------------------------------------------------
                    ; Вывод байта [HL] на экран в hex + пробел
                    ;----------------------------------------------------------------------------
F9B9:               print_hex_mem_and_space:                  ; F9B9
F9B9: 7E                             mov     a, m

                    ; Вывод байта из A на экран в hex + пробел
F9BA:               print_hex_byte_and_space:                 ; F9BA
F9BA: C5                             push    b
F9BB: CD A5 FC                       call    entry_hexb
F9BE: 3E 20                          mvi     a, ' '
F9C0: CD B9 FC                       call    putc_from_a
F9C3: C1                             pop     b
F9C4: C9                             ret

                    ;============================================================================
                    ; Команда D (Dump). Вывод дампа памяти в hex.
                    ; По 16 байт в строке. В начале строки - адрес первой ячейки.
                    ; Адрес строки округляется до 0 в младшей hex-цифре.
                    ;============================================================================
F9C5:               cmd_d:                                   ; F9C5
F9C5: CD 78 FB                       call    print_addr_from_hl

F9C8:               cmd_d_loop:                              ; F9C8
F9C8: CD B9 F9                       call    print_hex_mem_and_space
F9CB: CD 96 F9                       call    end_of_addr_or_f4
F9CE: 7D                             mov     a, l
F9CF: E6 0F                          ani     0Fh             ; Граница 16 байт?
F9D1: CA C5 F9                       jz      cmd_d           ; Да -> новая строка с адресом
F9D4: C3 C8 F9                       jmp     cmd_d_loop

                    ;============================================================================
                    ; Команда C (Compare). Сравнение двух областей памяти.
                    ; Сравнивает [HL] с [BC], выводит только различающиеся байты.
                    ; В строке: адрес, значение из первой области, значение из второй.
                    ;============================================================================
F9D7:               cmd_c:                                   ; F9D7
F9D7: 0A                             ldax    b
F9D8: BE                             cmp     m
F9D9: CA E6 F9                       jz      cmd_c_equal     ; Байты равны - пропускаем
F9DC: CD 78 FB                       call    print_addr_from_hl
F9DF: CD B9 F9                       call    print_hex_mem_and_space
F9E2: 0A                             ldax    b
F9E3: CD BA F9                       call    print_hex_byte_and_space

F9E6:               cmd_c_equal:                         ; F9E6
F9E6: 03                             inx     b
F9E7: CD 96 F9                       call    end_of_addr_or_f4
F9EA: C3 D7 F9                       jmp     cmd_c

                    ;============================================================================
                    ; Команда F (Fill). Заполнение области памяти.
                    ; Заполняет память от HL до DE байтом из C (третий параметр).
                    ;============================================================================
F9ED:               cmd_f:                           ; F9ED
F9ED: 71                             mov     m, c
F9EE: CD 99 F9                       call    cmp_hl_de_loop
F9F1: C3 ED F9                       jmp     cmd_f

                    ;============================================================================
                    ; Команда S (Search). Поиск байта в памяти.
                    ; Ищет байт из C в области от HL до DE.
                    ; Выводит адреса найденных совпадений.
                    ;============================================================================
F9F4:               cmd_s:                           ; F9F4
F9F4: 79                             mov     a, c
F9F5: BE                             cmp     m
F9F6: CC 78 FB                       cz      print_addr_from_hl
F9F9: CD 96 F9                       call    end_of_addr_or_f4
F9FC: C3 F4 F9                       jmp     cmd_s

                    ;============================================================================
                    ; Команда T (Transfer). Пересылка области памяти.
                    ; Пересылает байты из [HL..DE] в область, начиная с [BC].
                    ;============================================================================
F9FF:               cmd_t:                                   ; F9FF
F9FF: 7E                             mov     a, m
FA00: 02                             stax    b
FA01: 03                             inx     b
FA02: CD 99 F9                       call    cmp_hl_de_loop
FA05: C3 FF F9                       jmp     cmd_t

                    ;============================================================================
                    ; Команда L (Literal). Вывод содержимого памяти в символьном виде.
                    ; По 16 символов в строке. Непечатные символы заменяются точками.
                    ;============================================================================
FA08:               cmd_l:                                   ; FA08
FA08: CD 78 FB                       call    print_addr_from_hl

FA0B:               cmd_l_loop:                              ; FA0B
FA0B: 7E                             mov     a, m
FA0C: B7                             ora     a               ; Код > 7Fh?
FA0D: FA 15 FA                       jm      cmd_l_period    ; Да -> точка
FA10: FE 20                          cpi     ' '             ; Код < 20h (управляющий)?
FA12: D2 17 FA                       jnc     cmd_l_char      ; Нет -> выводим как есть

FA15:               cmd_l_period:                            ; FA15
FA15: 3E 2E                          mvi     a, '.'

FA17:               cmd_l_char:                              ; FA17
FA17: CD B9 FC                       call    putc_from_a
FA1A: CD 96 F9                       call    end_of_addr_or_f4
FA1D: 7D                             mov     a, l
FA1E: E6 0F                          ani     0Fh
FA20: CA 08 FA                       jz      cmd_l
FA23: C3 0B FA                       jmp     cmd_l_loop

                    ;============================================================================
                    ; Команда M (Modify). Изменение содержимого памяти.
                    ; Выводит адрес и содержимое ячейки, ожидает ввод нового значения.
                    ; [ВК] - перейти к следующей, [.] - выход из команды.
                    ;============================================================================
FA26:               cmd_m:                                    ; FA26
FA26: CD 78 FB                       call    print_addr_from_hl
FA29: CD B9 F9                       call    print_hex_mem_and_space
FA2C: E5                             push    h
FA2D: CD EE F8                       call    input_string
FA30: E1                             pop     h
FA31: D2 3B FA                       jnc     cmd_m_next       ; Ничего не введено -> следующий адрес

FA34: E5                             push    h
FA35: CD 5A F9                       call    parse_hex        ; Получаем новое значение в HL
FA38: 7D                             mov     a, l
FA39: E1                             pop     h
FA3A: 77                             mov     m, a             ; Записываем в память

FA3B:               cmd_m_next:                               ; FA3B
FA3B: 23                             inx     h
FA3C: C3 26 FA                       jmp     cmd_m

                    ;============================================================================
                    ; Команда G (Go). Запуск программы.
                    ; 1-й параметр: адрес старта.
                    ; 2-й параметр (необязательный): адрес останова.
                    ; Если адрес останова указан, по нему записывается RST 6 (F7h),
                    ; а по адресу 0030h - JMP return_address. После останова регистры
                    ; сохраняются в служебных ячейках (доступны по команде X).
                    ;============================================================================
FA3F:               cmd_g:                                   ; FA3F
FA3F: CD 90 F9                       call    cmp_hl_de       ; Указан ли адрес останова?
FA42: CA 5A FA                       jz      cmd_g_run       ; Нет -> сразу запуск

                    ; Настройка механизма останова через адрес 0030h
FA45: EB                             xchg
FA46: 22 23 76                       shld    stop_addr       ; Сохраняем адрес останова
FA49: 7E                             mov     a, m
FA4A: 32 25 76                       sta     stop_addr_value ; Сохраняем байт по этому адресу
FA4D: 36 F7                          mvi     m, 0F7h         ; RST 6 по адресу останова
FA4F: 3E C3                          mvi     a, 0C3h         ; Команда JMP
FA51: 32 30 00                       sta     rst_6_addr      ; по адресу 0030h
FA54: 21 A2 FF                       lxi     h, return_address
FA57: 22 31 00                       shld    rst_6_addr+1    ; Адрес возврата

                    ; Загрузка регистров из служебных ячеек и запуск программы
FA5A:               cmd_g_run:                               ; FA5A
FA5A: 31 18 76                       lxi     sp, bc_storage
FA5D: C1                             pop     b
FA5E: D1                             pop     d
FA5F: E1                             pop     h
FA60: F1                             pop     psw
FA61: F9                             sphl                    ; Загружаем SP
FA62: 2A 16 76                       lhld    hl_storage
FA65: C3 26 76                       jmp     jump_to_go      ; JMP на адрес старта

                    ;============================================================================
                    ; Команда R (Read). Загрузка из ROM-диска (ПЗУ через доп. ППА D14).
                    ; Шина данных -> порт A, шина адреса -> порты B и C.
                    ; 1-й параметр: начальный адрес в ОЗУ, 2-й: конечный, 3-й: адрес в ПЗУ.
                    ;============================================================================
FA68:               cmd_r:                           ; FA68
FA68: 3E 90                          mvi     a, 90h          ; Порт A - ввод, B и C - вывод
FA6A: 32 03 A0                       sta     vv55_d14_ctrl

FA6D:               cmd_r_loop:                              ; FA6D
FA6D: 22 01 A0                       shld    vv55_d14_port_b ; Адрес в ПЗУ (мл. в B, ст. в C)
FA70: 3A 00 A0                       lda     vv55_d14_port_a ; Читаем байт
FA73: 02                             stax    b               ; Сохраняем в ОЗУ
FA74: 03                             inx     b               ; Перейти к след. адресу ОЗУ
FA75: CD 99 F9                       call    cmp_hl_de_loop  ; Проверка на конец
FA78: C3 6D FA                       jmp     cmd_r_loop

                    ;----------------------------------------------------------------------------
                    ; Получить координаты курсора в HL (H=Y, L=X)
                    ;----------------------------------------------------------------------------
FA7B:               entry_getxy:                             ; FA7B
FA7B: 2A 02 76                       lhld    cursor_xy
FA7E: C9                             ret

                    ;----------------------------------------------------------------------------
                    ; Получить символ с экрана по адресу курсора в A
                    ;----------------------------------------------------------------------------
FA7F:               entry_curc:                              ; FA7F
FA7F: E5                             push    h
FA80: 2A 00 76                       lhld    cursor_addr
FA83: 7E                             mov     a, m
FA84: E1                             pop     h
FA85: C9                             ret

                    ;============================================================================
                    ; Команда I (Input). Загрузка блока данных с магнитофона.
                    ; 1-й параметр: смещение относительно адреса на ленте.
                    ; 2-й параметр (необязательный): новая константа чтения.
                    ;============================================================================
FA86:               cmd_i:                                    ; FA86
FA86: 3A 2D 76                       lda     param_2_present
FA89: B7                             ora     a
FA8A: CA 91 FA                       jz      cmd_i_cr
FA8D: 7B                             mov     a, e
FA8E: 32 2F 76                       sta     tape_read_const  ; Новая константа чтения

FA91:               cmd_i_cr:                                   ; FA91
FA91: CD B6 FA                       call    entry_inpblock     ; Читаем блок с магнитофона
FA94: CD 78 FB                       call    print_addr_from_hl ; Выводим адрес начала
FA97: EB                             xchg
FA98: CD 78 FB                       call    print_addr_from_hl ; Выводим адрес конца
FA9B: EB                             xchg
FA9C: C5                             push    b
FA9D: CD 16 FB                       call    entry_chksum       ; Считаем контрольную сумму
FAA0: 60                             mov     h, b
FAA1: 69                             mov     l, c
FAA2: CD 78 FB                       call    print_addr_from_hl ; Выводим вычисленную КС
FAA5: D1                             pop     d                  ; Считанная КС
FAA6: CD 90 F9                       call    cmp_hl_de          ; Совпадают?
FAA9: C8                             rz                         ; Да -> выход
FAAA: EB                             xchg
FAAB: CD 78 FB                       call    print_addr_from_hl ; Нет -> выводим считанную КС

                    ;----------------------------------------------------------------------------
                    ; Выход из команды с ошибкой - знак вопроса и возврат на промт
                    ;----------------------------------------------------------------------------
FAAE:               print_error:                             ; FAAE
FAAE: 3E 3F                          mvi     a, '?'
FAB0: CD B9 FC                       call    putc_from_a
FAB3: C3 6C F8                       jmp     prompt_loop

                    ;============================================================================
                    ; Ввод блока данных с магнитофона.
                    ;   Вход:  HL - смещение
                    ;   Выход: HL - адрес начала, DE - адрес конца, BC - контрольная сумма
                    ; Структура блока на ленте:
                    ;   раккорд, синхробайт, начальный адрес, конечный адрес, данные,
                    ;   раккорд, синхробайт, контрольная сумма
                    ;============================================================================
FAB6:               entry_inpblock:                          ; FAB6
FAB6: 3E FF                          mvi     a, 0FFh         ; Признак поиска синхробайта
FAB8: CD FF FA                       call    input_bc        ; Вводим начальный адрес в BC
FABB: E5                             push    h
FABC: 09                             dad     b               ; Начальный адрес = адрес с ленты + смещение
FABD: EB                             xchg                    ; DE = начальный адрес
FABE: CD FD FA                       call    input_bc_no_sync ; Вводим конечный адрес в BC
FAC1: E1                             pop     h
FAC2: 09                             dad     b               ; Конечный адрес = адрес с ленты + смещение
FAC3: EB                             xchg                    ; HL = начальный, DE = конечный
FAC4: E5                             push    h
FAC5: CD 0A FB                       call    read_block      ; Вводим массив данных
FAC8: 3E FF                          mvi     a, 0FFh
FACA: CD FF FA                       call    input_bc        ; Вводим контрольную сумму в BC
FACD: E1                             pop     h

                    ;============================================================================
                    ; Настройка отображения на экране (видеоконтроллер ВГ75 + ПДП ВТ57)
                    ;============================================================================
FACE:               entry_video:                             ; FACE
FACE: E5                             push    h

                    ; Настраиваем контроллер ЭЛТ ВГ75
FACF: 21 01 C0                       lxi     h, vg75_cmd_reg
FAD2: 36 00                          mvi     m, 0            ; Команда Reset
FAD4: 2B                             dcx     h               ; Передаем параметры:
FAD5: 36 4D                          mvi     m, 4Dh          ; 78-1 = 77 символов в строке
FAD7: 36 1D                          mvi     m, 1Dh          ; 30-1 = 29 знакорядов в кадре
FAD9: 36 99                          mvi     m, 99h          ; Высота символа 10 строк, подчеркивание на 10-й
                                                             ; (10-1) << 4 | 9
                    ; Задаем режим отображения: 0 - без сдига номеров строк
                    ; Атрибуты поля: не прозрачные
                    ; Тип курсора: мигающее подчеркивание
                    ; Количество символов в строчном синхроимпульсе: 8 интервалов (6 мкс)
FADB: 36 93                          mvi     m, 93h          ; Режим: мигающее подчеркивание, 8 интервалов
                                                             ; (1 << 7) | (1 << 4) | ((8/2)-1)
FADD: 23                             inx     h
                    ; Команда "начать отображение":
                    ; интервал между запросами ПДП: 7 символов, 8 байт в пакете
FADE: 36 27                          mvi     m, 27h          ; (1 << 5) | (((7+1)/8) << 2) | 3
FAE0: 7E                             mov     a, m            ; Чтение статуса

                    ; Ожидаем начало кадра (бит IR в статусном регистре ВГ75)
                    ; Бит IR статусного регистра устанавливается после начала последнего знакоряда в кадре.
                    ; Как раз в это время и нужно загружать данные первого знакоряда на экране.
FAE1:               wait_frame_start:                        ; FAE1
FAE1: 7E                             mov     a, m
FAE2: E6 20                          ani     20h             ; Флаг IR
FAE4: CA E1 FA                       jz      wait_frame_start

                    ; Настраиваем канал 2 ПДП ВТ57 для пересылки видеоданных
                    ; Режим: чтение ОЗУ с автозагрузкой (регистры канала 3)
                    ; Для пересылки используется канал 2 в режиме чтения ОЗУ с автозагрузкой.
                    ; Для автозагрузки используются регистры канала 3.
                    ; После пересылки последнего байта экрана начальные данные ПДП (начальный
                    ; адрес и количество байт пересылки) снова автоматически загружаются в регистры
                    ; 2 канала и пересылка продолжается постоянно.
FAE7: 21 08 E0                       lxi     h, vt57_mode
FAEA: 36 80                          mvi     m, 80h                  ; Остановить ПДП, включить автозагрузку
                    ; Адрес начала пересылки: начало видео ОЗУ
FAEC: 2E 04                          mvi     l, vt57_ch2_addr & 0FFh ; 4
FAEE: 36 D0                          mvi     m, video_memory & 0FFh  ; 0Dh
FAF0: 36 76                          mvi     m, video_memory / 256   ; 76h
                    ; Количество байт пересылки и режим (запись в ОЗУ)
FAF2: 2C                             inr     l
FAF3: 36 23                          mvi     m, (video_mem_size-1) & 0FFh        ; 23h
FAF5: 36 49                          mvi     m, 40h | ((video_mem_size-1) / 256) ; 49h
                    ; Запускаем ПДП: автозагрузка, удлиненная запись, канал 2.
FAF7: 2E 08                          mvi     l, vt57_mode & 0FFh                 ; 8
FAF9: 36 A4                          mvi     m, 0A4h

FAFB: E1                             pop     h
FAFC: C9                             ret

                    ;----------------------------------------------------------------------------
                    ; Ввод 16-битного слова в BC с магнитофона (без синхробайта)
                    ;----------------------------------------------------------------------------
FAFD:               input_bc_no_sync:                        ; FAFD
FAFD: 3E 08                          mvi     a, 8            ; 8 бит, без поиска синхробайта

                    ; Ввод 16-битного слова в BC с магнитофона (с синхробайтом если A=FFh)
FAFF:               input_bc:                                ; FAFF
FAFF: CD 98 FB                       call    entry_inpb      ; Читаем старший байт
FB02: 47                             mov     b, a
FB03: 3E 08                          mvi     a, 8
FB05: CD 98 FB                       call    entry_inpb      ; Читаем младший байт
FB08: 4F                             mov     c, a
FB09: C9                             ret

                    ;----------------------------------------------------------------------------
                    ; Чтение массива данных с магнитофона.
                    ; HL - начальный адрес, DE - конечный адрес.
                    ;----------------------------------------------------------------------------
FB0A:               read_block:                              ; FB0A
FB0A: 3E 08                          mvi     a, 8            ; Без поиска синхробайта
FB0C: CD 98 FB                       call    entry_inpb
FB0F: 77                             mov     m, a            ; Сохраняем в память
FB10: CD 99 F9                       call    cmp_hl_de_loop
FB13: C3 0A FB                       jmp     read_block

                    ;============================================================================
                    ; Подсчет контрольной суммы.
                    ;   Вход:  HL - начальный адрес, DE - конечный адрес.
                    ;   Выход: BC - контрольная сумма.
                    ; Алгоритм:
                    ;   Младший байт (C): сумма всех байтов без учета переноса.
                    ;   Старший байт (B): сумма всех байтов (кроме последнего) + переносы из C.
                    ;============================================================================
FB16:               entry_chksum:                            ; FB16
FB16: 01 00 00                       lxi     b, 0

FB19:               checksum_loop:                           ; FB19
                    ; Обработка младшего байта
FB19: 7E                             mov     a, m
FB1A: 81                             add     c
FB1B: 4F                             mov     c, a
FB1C: F5                             push    psw             ; Сохраняем признак переноса
FB1D: CD 90 F9                       call    cmp_hl_de
FB20: CA 9F F9                       jz      cmp_hl_de_ret   ; Последний байт -> дост аем PSW и выходим
FB23: F1                             pop     psw
                    ; Обработка старшего байта
FB24: 78                             mov     a, b
FB25: 8E                             adc     m               ; Суммируем + перенос из младшего
FB26: 47                             mov     b, a
FB27: CD 99 F9                       call    cmp_hl_de_loop
FB2A: C3 19 FB                       jmp     checksum_loop

                    ;============================================================================
                    ; Команда O (Output). Запись блока памяти на магнитную ленту.
                    ; 1-й параметр: начальный адрес, 2-й: конечный.
                    ; 3-й (необязательный): новая константа записи.
                    ;============================================================================
FB2D:               cmd_o:                           ; FB2D
FB2D: 79                             mov     a, c
FB2E: B7                             ora     a
FB2F: CA 35 FB                       jz      cmd_o_no_change
FB32: 32 30 76                       sta     tape_write_const   ; Новая константа записи

FB35:               cmd_o_no_change:                            ; FB35
FB35: E5                             push    h
FB36: CD 16 FB                       call    entry_chksum       ; Вычисляем контрольную сумму
FB39: E1                             pop     h
FB3A: CD 78 FB                       call    print_addr_from_hl ; Выводим начальный адрес
FB3D: EB                             xchg
FB3E: CD 78 FB                       call    print_addr_from_hl ; Выводим конечный адрес
FB41: EB                             xchg
FB42: E5                             push    h
FB43: 60                             mov     h, b
FB44: 69                             mov     l, c
FB45: CD 78 FB                       call    print_addr_from_hl ; Выводим контрольную сумму
FB48: E1                             pop     h

                    ;============================================================================
                    ; Вывод блока данных на магнитную ленту.
                    ;   Вход: HL - начальный адрес, DE - конечный адрес, BC - контрольная сумма.
                    ; Структура блока:
                    ;   256 байт раккорда (00), синхробайт, нач.адрес, кон.адрес,
                    ;   данные, 2 байта раккорда (00), синхробайт, контрольная сумма
                    ;============================================================================
FB49:               entry_outblock:                           ; FB49
FB49: C5                             push    b                ; Сохраняем контрольную сумму
FB4A: 01 00 00                       lxi     b, 0

                    ; Вывод раккорда (256 нулевых байт)
FB4D:               zero_block_loop:                          ; FB4D
FB4D: CD 46 FC                       call    entry_outb
FB50: 05                             dcr     b                ; Счетчик 256 байт
FB51: E3                             xthl                     ; Задержка 18 тактов
FB52: E3                             xthl                     ; Задержка 18 тактов
FB53: C2 4D FB                       jnz     zero_block_loop

FB56: 0E E6                          mvi     c, sync_byte     ; Синхробайт
FB58: CD 46 FC                       call    entry_outb
FB5B: CD 90 FB                       call    out_addr_from_hl ; Начальный адрес
FB5E: EB                             xchg
FB5F: CD 90 FB                       call    out_addr_from_hl ; Конечный адрес
FB62: EB                             xchg
FB63: CD 86 FB                       call    out_block_loop   ; Массив данных
FB66: 21 00 00                       lxi     h, 0
FB69: CD 90 FB                       call    out_addr_from_hl ; 2 байта раккорда (0000)
FB6C: 0E E6                          mvi     c, sync_byte
FB6E: CD 46 FC                       call    entry_outb       ; Синхробайт
FB71: E1                             pop     h                ; Контрольная сумма
FB72: CD 90 FB                       call    out_addr_from_hl ; Выводим КС
FB75: C3 CE FA                       jmp     entry_video      ; Восстанавливаем видео и выходим

                    ;----------------------------------------------------------------------------
                    ; Вывод адреса с новой строки (с отступом). Адрес в HL.
                    ;----------------------------------------------------------------------------
FB78:               print_addr_from_hl:                       ; FB78
FB78: C5                             push    b
FB79: CD B0 F9                       call    print_next_line_prefix
FB7C: 7C                             mov     a, h
FB7D: CD A5 FC                       call    entry_hexb      ; Старший байт
FB80: 7D                             mov     a, l
FB81: CD BA F9                       call    print_hex_byte_and_space ; Младший байт и ' '
FB84: C1                             pop     b
FB85: C9                             ret

                    ;----------------------------------------------------------------------------
                    ; Вывод массива байт на магнитофон. HL - начало, DE - конец.
                    ;----------------------------------------------------------------------------
FB86:               out_block_loop:                          ; FB86
FB86: 4E                             mov     c, m
FB87: CD 46 FC                       call    entry_outb
FB8A: CD 99 F9                       call    cmp_hl_de_loop
FB8D: C3 86 FB                       jmp     out_block_loop

                    ;----------------------------------------------------------------------------
                    ; Вывод 16-разрядного слова из HL на магнитофон (старший байт первым).
                    ;----------------------------------------------------------------------------
FB90:               out_addr_from_hl:                        ; FB90
FB90: 4C                             mov     c, h
FB91: CD 46 FC                       call    entry_outb      ; Старший байт
FB94: 4D                             mov     c, l
FB95: C3 46 FC                       jmp     entry_outb      ; Младший байт и выход

                    ;============================================================================
                    ; Ввод байта данных с магнитофона.
                    ;   Вход:  A = 8          - без поиска синхробайта (8 бит)
                    ;          A = 80h..FFh   - с поиском синхробайта
                    ;   Выход: A - введенный байт
                    ; Если ввод был с поиском синхробайта, то выдается байт, следующий
                    ; непосредственно за синхробайтом.
                    ; Обработка последнего бита укорачивается на 450 тактов, чтобы
                    ; предоставить время на обработку введенного байта.
                    ;============================================================================
FB98:               entry_inpb:                              ; FB98
FB98: E5                             push    h
FB99: C5                             push    b
FB9A: D5                             push    d
FB9B: 57                             mov     d, a            ; D = признак синхробайта / счетчик бит

                    ; Отслеживаем изменение уровня на входе магнитофона.
                    ; SP используется нетрадиционно - для регенерации ОЗУ через POP PSW.
                    ; Его содержимое записывается в служебной ячейке, а в SP записывается 0000h.
                    ; Далее мы периодически выполняя инструкцию POP PSW, выполняем регенерацию ОЗУ.
FB9C:               seek_change:                             ; FB9C
FB9C: 3E 80                          mvi     a, 80h
FB9E: 32 08 E0                       sta     vt57_mode       ; Останавливаем отображение на экране

FBA1: 21 00 00                       lxi     h, 0
FBA4: 39                             dad     sp              ; Сохраняем SP
FBA5: 31 00 00                       lxi     sp, 0           ; SP = 0 для регенерации ОЗУ
FBA8: 22 0D 76                       shld    temp_sp

FBAB: 0E 00                          mvi     c, 0            ; Заготовка под вводимый байт
FBAD: 3A 02 80                       lda     vv55_port_c     ; Читаем состояние входа магнитофона
FBB0: 0F                             rrc
FBB1: 0F                             rrc
FBB2: 0F                             rrc
FBB3: 0F                             rrc                     ; Сдвигаем бит C4 -> d0
FBB4: E6 01                          ani     1
FBB6: 5F                             mov     e, a            ; E = текущий уровень сигнала

                    ; Обработка очередного бита
FBB7:               next_bit:                                ; FBB7
FBB7: F1                             pop     psw             ; Регенерация ОЗУ
FBB8: 79                             mov     a, c            ; Сдвигаем заготовку байта
FBB9: E6 7F                          ani     7Fh             ; влево на 1 бит,
FBBB: 07                             rlc                     ; очищая d0
FBBC: 4F                             mov     c, a
FBBD: 26 00                          mvi     h, 0            ; Счетчик попыток чтения

                    ; Цикл ожидания изменения уровня на входе C4 (вход с магнитофона)
FBBF:               change_loop:                             ; FBBF
FBBF: 25                             dcr     h
FBC0: CA 34 FC                       jz      input_timeout   ; Тайм-аут -> обработка
FBC3: F1                             pop     psw             ; Регенерация ОЗУ
FBC4: 3A 02 80                       lda     vv55_port_c
FBC7: 0F                             rrc
FBC8: 0F                             rrc
FBC9: 0F                             rrc
FBCA: 0F                             rrc                     ; Бит C4 -> d0
FBCB: E6 01                          ani     1
FBCD: BB                             cmp     e               ; Уровень изменился?
FBCE: CA BF FB                       jz      change_loop     ; Нет -> ждем

FBD1: B1                             ora     c               ; Да -> помещаем бит в заготовку
FBD2: 4F                             mov     c, a
FBD3: 15                             dcr     d               ; Счетчик бит--
FBD4: 3A 2F 76                       lda     tape_read_const ; Константа чтения (2Ah = 42)
FBD7: C2 DC FB                       jnz     normal_delay    ; Не последний бит -> полная задержка
FBDA: D6 12                          sui     12h             ; Последний бит -> укороченная задержка

                    ; Цикл задержки чтения
                    ; Один проход: POP(10) + DCR(5) + JNZ(10) = 25 тактов
                    ; При f=16МГц: T_такта = 0.56мкс, T_цикла = 14мкс
                    ; Для const_read=2Ah(42): задержка = 42*14мкс = 591мкс ~ 0.6мс
                    ; Для последнего бита: (2Ah-12h)*14мкс = 336мкс
FBDC:               normal_delay:                            ; FBDC
FBDC: 47                             mov     b, a            ; значение задержки (5) ------+ 1055 (T)
FBDD:               read_delay_loop:                         ; FBDD                        |
FBDD: F1                             pop     psw             ; (10) +   Регенерация ОЗУ    |
FBDE: 05                             dcr     b               ; (5)  | 25*42 = 1050  -------+
FBDF: C2 DD FB                       jnz     read_delay_loop ; (10) +

FBE2: 14                             inr     d               ; Восстанавливаем счетчик бит
FBE3: 3A 02 80                       lda     vv55_port_c     ; Читаем текущий уровень
FBE6: 0F                             rrc
FBE7: 0F                             rrc
FBE8: 0F                             rrc
FBE9: 0F                             rrc
FBEA: E6 01                          ani     1
FBEC: 5F                             mov     e, a            ; Сохраняем уровень
FBED: 7A                             mov     a, d
FBEE: B7                             ora     a               ; Ждем синхробайт?
FBEF: F2 0B FC                       jp      check_bit_count ; Нет -> считаем биты

                    ; Проверка на синхробайт
FBF2: 79                             mov     a, c
FBF3: FE E6                          cpi     sync_byte       ; Синхробайт (E6h)?
FBF5: C2 FF FB                       jnz     invert_polarity ; Нет -> проверим инверсию
FBF8: AF                             xra     a
FBF9: 32 2E 76                       sta     tape_polarity   ; Полярность = прямая
FBFC: C3 09 FC                       jmp     set_bit_count

FBFF:               invert_polarity:                         ; FBFF
FBFF: FE 19                          cpi     19h             ; Инверсный синхробайт (19h)?
FC01: C2 B7 FB                       jnz     next_bit        ; Нет -> продолжаем искать
FC04: 3E FF                          mvi     a, 0FFh
FC06: 32 2E 76                       sta     tape_polarity   ; Полярность = инверсная

                    ; После получения синхробайта вводим байт данных
FC09:               set_bit_count:                           ; FC09
FC09: 16 09                          mvi     d, 9            ; 8 бит + 1 (декремент перед проверкой)

FC0B:               check_bit_count:                         ; FC0B
FC0B: 15                             dcr     d               ; Подсчет бит
FC0C: C2 B7 FB                       jnz     next_bit        ; Не последний -> продолжаем ввод

                    ; Ввод байта закончен. Восстанавливаем отображение на экране.
                    ; Настраиваем канал 2 ПДП для видео
FC0F: 21 04 E0                       lxi     h, vt57_ch2_addr
FC12: 36 D0                          mvi     m, video_memory & 0FFh
FC14: 36 76                          mvi     m, video_memory / 256
FC16: 23                             inx     h
FC17: 36 23                          mvi     m, (video_mem_size-1) & 0FFh
FC19: 36 49                          mvi     m, 40h | ((video_mem_size-1) / 256)
                    ; Начать отображение
FC1B: 3E 27                          mvi     a, 27h
FC1D: 32 01 C0                       sta     vg75_cmd_reg
                    ; Команда "установить счетчики"
FC20: 3E E0                          mvi     a, 0E0h
FC22: 32 01 C0                       sta     vg75_cmd_reg
                    ; Запуск ПДП
FC25: 2E 08                          mvi     l, vt57_mode & 0FFh
FC27: 36 A4                          mvi     m, 0A4h

FC29: 2A 0D 76                       lhld    temp_sp         ; Восстанавливаем SP
FC2C: F9                             sphl

FC2D: 3A 2E 76                       lda     tape_polarity   ; Учитываем полярность
FC30: A9                             xra     c               ; и выдаем байт данных
FC31: C3 A1 FC                       jmp     restore_ret

                    ; Тайм-аут: на входе нет сигнала (уровень не меняется)
FC34:               input_timeout:                           ; FC34
FC34: 2A 0D 76                       lhld    temp_sp
FC37: F9                             sphl                    ; Восстанавливаем SP
FC38: CD CE FA                       call    entry_video     ; Восстанавливаем видео
FC3B: 7A                             mov     a, d
FC3C: B7                             ora     a               ; Ожидали синхробайт?
FC3D: F2 AE FA                       jp      print_error     ; Нет -> ошибка
FC40: CD A4 F9                       call    check_press_f4  ; Проверяем [F4]
FC43: C3 9C FB                       jmp     seek_change     ; Продолжаем искать сигнал

                    ;============================================================================
                    ; Вывод байта из C на магнитофон.
                    ; Информация выводится последовательно, начиная со старшего бита,
                    ; на выход C0 D20. Параллельно выводится на C1-C3 (к C3 подключен
                    ; светодиод РУС/ЛАТ, он мигает при записи).
                    ;============================================================================
FC46:               entry_outb:                              ; FC46
FC46: E5                             push    h
FC47: C5                             push    b
FC48: D5                             push    d
FC49: F5                             push    psw
FC4A: 3E 80                          mvi     a, 80h
FC4C: 32 08 E0                       sta     vt57_mode       ; Останавливаем видео

                    ; SP используется для регенерации ОЗУ
FC4F: 21 00 00                       lxi     h, 0
FC52: 39                             dad     sp              ; Сохраняем SP в HL
FC53: 31 00 00                       lxi     sp, 0
FC56: 16 08                          mvi     d, 8            ; Счетчик бит

                    ; Вывод первого (инвертированного) полупериода бита
FC58:               out_next_bit:                            ; FC58
FC58: F1                             pop     psw             ; Регенерация ОЗУ
FC59: 79                             mov     a, c
FC5A: 07                             rlc                     ; Очередной бит в d0
FC5B: 4F                             mov     c, a
FC5C: 3E 01                          mvi     a, 1
FC5E: A9                             xra     c               ; Инвертируем бит
FC5F: 32 02 80                       sta     vv55_port_c
FC62: 3A 30 76                       lda     tape_write_const
FC65: 47                             mov     b, a

                    ; Цикл задержки инвертированного полупериода
                    ; Один проход: POP(10) + DCR(5) + JNZ(10) = 25 тактов
                    ; При const_write=1Dh(29): задержка = 29*14мкс = 406мкс ~ 0.4мс
                    ; Полный период ~ 0.8мс, частота ~ 1.2кГц

                    ; Задержка на один проход цикла 10+5+10=25 тактов, что при тактовой частоте
                    ; РК 16МГц составляет: Ft=16/9=1.7777МГц
                    ; Tt=1/1.7777=0.56мкс T=25*0.56мкс=14мкс
                    ; Для стандартной константы записи const_write=1Dh=29 общая задержка составляет
                    ; Tr=29*14мкс=406мкс или ~0.4мс

                    ; Эта задержка составляет половину периода вывода бита, значит период ~=0.8мкс
                    ; Частота колебаний при выводе однородных бит (00000... или 11111...) составляет 1.2кГц
                    ; При выводе чередующихся бит (0101010101....) частота в 2 раз ниже ~600Гц.
                    ; При выводе случайной последовательности бит выдается шумоподобный сигнал,
                    ; при этом спектр распределяется между этими двумя частотами.

FC66:               out_bit_loop1:                           ; FC66
FC66: F1                             pop     psw             ; Регенерация ОЗУ
FC67: 05                             dcr     b
FC68: C2 66 FC                       jnz     out_bit_loop1

                    ; Вывод второго (прямого) полупериода бита
FC6B: 3E 00                          mvi     a, 0
FC6D: A9                             xra     c               ; Прямой бит
FC6E: 32 02 80                       sta     vv55_port_c
FC71: 15                             dcr     d               ; Счетчик бит--
FC72: 3A 30 76                       lda     tape_write_const
FC75: C2 7A FC                       jnz     not_last_bit    ; Не последний бит -> полная задержка
FC78: D6 0E                          sui     0Eh             ; Последний бит -> укороченная

FC7A:               not_last_bit:                            ; FC7A
FC7A: 47                             mov     b, a

                    ; Цикл задержки прямого полупериода
FC7B:               out_bite_loop2:                          ; FC7B
FC7B: F1                             pop     psw             ; Регенерация ОЗУ
FC7C: 05                             dcr     b
FC7D: C2 7B FC                       jnz     out_bite_loop2

FC80: 14                             inr     d               ; Проверка на последний бит
FC81: 15                             dcr     d
FC82: C2 58 FC                       jnz     out_next_bit

                    ; Восстанавливаем SP и видео
FC85: F9                             sphl
FC86: 21 04 E0                       lxi     h, vt57_ch2_addr                     ; E004h
FC89: 36 D0                          mvi     m, video_memory & 0FFh               ; 0D0h
FC8B: 36 76                          mvi     m, video_memory / 256                ; 76h
FC8D: 23                             inx     h
FC8E: 36 23                          mvi     m, (video_mem_size-1) & 0FFh         ; 23h
FC90: 36 49                          mvi     m, 40h | ((video_mem_size-1) / 256)  ; 49h
FC92: 3E 27                          mvi     a, 27h
FC94: 32 01 C0                       sta     vg75_cmd_reg          ; 0C001h
FC97: 3E E0                          mvi     a, 0E0h
FC99: 32 01 C0                       sta     vg75_cmd_reg          ; 0C001h
FC9C: 2E 08                          mvi     l, vt57_mode & 0FFh   ; 8
FC9E: 36 A4                          mvi     m, 0A4h
FCA0: F1                             pop     psw

                    ; Общий выход с восстановлением регистров
FCA1:               restore_ret:                                   ; FCA1
FCA1: D1                             pop     d
FCA2: C1                             pop     b
FCA3: E1                             pop     h
FCA4: C9                             ret

                    ;============================================================================
                    ; Вывод байта из A на экран в шестнадцатеричной форме
                    ;============================================================================
FCA5:               entry_hexb:                              ; FCA5
FCA5: F5                             push    psw
FCA6: 0F                             rrc                     ; Старшая тетрада
FCA7: 0F                             rrc
FCA8: 0F                             rrc
FCA9: 0F                             rrc
FCAA: CD AE FC                       call    hexb_nibble
FCAD: F1                             pop     psw

                    ; Вывод тетрады (младшей) как hex-цифры
FCAE:               hexb_nibble:                             ; FCAE
FCAE: E6 0F                          ani     0Fh
FCB0: FE 0A                          cpi     0Ah
FCB2: FA B7 FC                       jm      hexb_make_char
FCB5: C6 07                          adi     7               ; Коррекция для A-F

FCB7:               hexb_make_char:                          ; FCB7
FCB7: C6 30                          adi     30h             ; Преобразуем в ASCII-символ

                    ; Вывод символа из A (перенос в C и вызов entry_putc)
FCB9:               putc_from_a:                             ; FCB9
FCB9: 4F                             mov     c, a

                    ;============================================================================
                    ; Вывод символа на экран из регистра C.
                    ; Обрабатывает управляющие коды, АР2-последовательности и печатные символы.
                    ; Клавиша [РУС/ЛАТ] приостанавливает вывод, [F4] прерывает.
                    ;============================================================================
FCBA:               entry_putc:                              ; FCBA
FCBA: F5                             push    psw
FCBB: C5                             push    b
FCBC: D5                             push    d
FCBD: E5                             push    h
FCBE: CD 01 FE                       call    entry_kbhit     ; Проверка на приостановку/прерывание

                    ; Адрес сохранения курсора в стеке (выполняется при любом выходе)
FCC1: 21 85 FD                       lxi     h, set_cursor_and_exit
FCC4: E5                             push    h

FCC5: 2A 02 76                       lhld    cursor_xy
FCC8: EB                             xchg                    ; DE = координаты курсора
FCC9: 2A 00 76                       lhld    cursor_addr     ; HL = адрес в видео ОЗУ
FCCC: 3A 04 76                       lda     ap2_seq
FCCF: 3D                             dcr     a
FCD0: FA EE FC                       jm      ap2_not_found   ; АР2 не используется (= 0)
FCD3: CA 65 FD                       jz      ap2_byte_1      ; 1-й байт АР2 ("Y")
FCD6: E2 73 FD                       jpo     ap2_byte_2      ; 2-й байт АР2 (смещение по Y)

                    ;----------------------------------------------------------------------------
                    ; Обработка 3-го байта АР2-последовательности (смещение по X + 20h)
                    ;----------------------------------------------------------------------------
FCD9: 79                             mov     a, c
FCDA: D6 20                          sui     20h             ; Действительное смещение по X
FCDC: 4F                             mov     c, a

FCDD:               ap2_move_x_loop:                         ; FCDD
FCDD: 0D                             dcr     c
FCDE: FA E9 FC                       jm      reset_ap2_seq   ; Все -> сброс АР2
FCE1: C5                             push    b
FCE2: CD B9 FD                       call    move_right
FCE5: C1                             pop     b
FCE6: C3 DD FC                       jmp     ap2_move_x_loop

                    ; Сброс АР2-последовательности
FCE9:               reset_ap2_seq:                           ; FCE9
FCE9: AF                             xra     a

FCEA:               update_ap2_and_exit:                     ; FCEA
FCEA: 32 04 76                       sta     ap2_seq
FCED: C9                             ret

                    ;----------------------------------------------------------------------------
                    ; АР2 не используется - проверяем управляющие символы
                    ;----------------------------------------------------------------------------
FCEE:               ap2_not_found:                           ; FCEE
FCEE: 79                             mov     a, c
FCEF: E6 7F                          ani     7Fh             ; Сбрасываем старший бит
FCF1: 4F                             mov     c, a
FCF2: FE 1F                          cpi     1Fh             ; СТР - очистка экрана
FCF4: CA A3 FD                       jz      clear_screen
FCF7: FE 0C                          cpi     0Ch             ; Курсор в начало экрана
FCF9: CA B2 FD                       jz      cursor_home
FCFC: FE 0D                          cpi     0Dh             ; ВК - возврат каретки
FCFE: CA F3 FD                       jz      carrage_return
FD01: FE 0A                          cpi     0Ah             ; ПС - перевод строки
FD03: CA 47 FD                       jz      new_line
FD06: FE 08                          cpi     8               ; Стрелка влево
FD08: CA D6 FD                       jz      move_left
FD0B: FE 18                          cpi     18h             ; Стрелка вправо
FD0D: CA B9 FD                       jz      move_right
FD10: FE 19                          cpi     19h             ; Стрелка вверх
FD12: CA E2 FD                       jz      move_up
FD15: FE 1A                          cpi     1Ah             ; Стрелка вниз
FD17: CA C5 FD                       jz      move_down
FD1A: FE 1B                          cpi     1Bh             ; АР2
FD1C: CA 9E FD                       jz      ap2_seq_start
FD1F: FE 07                          cpi     7               ; Звуковой сигнал
FD21: C2 38 FD                       jnz     print_char      ; Нет -> печатный символ

                    ; Звуковой сигнал (B = высота тона, C = длительность)
FD24: 01 F0 05                       lxi     b, beep

                    ;----------------------------------------------------------------------------
                    ; Подпрограмма звукового сигнала.
                    ;   B - задержка периода (высота тона)
                    ;   C - количество периодов (длительность)
                    ; Звук формируется сменой уровня на выходе INTE процессора
                    ; командами EI (высокий) и DI (низкий).
                    ;   Формулы: b = 47/f(кГц), c = t(мс)/(b*0.021)
                    ;   Диапазон частот: 184Гц - 47кГц
                    ;----------------------------------------------------------------------------
FD27:               sound:                                   ; FD27
FD27: 78                             mov     a, b
FD28:               sound_on_loop:                           ; FD28
FD28: FB                             ei                      ; Верхний полупериод
FD29: 3D                             dcr     a
FD2A: C2 28 FD                       jnz     sound_on_loop

FD2D: 78                             mov     a, b
FD2E:               sound_off_loop:                          ; FD2E
FD2E: F3                             di                      ; Нижний полупериод
FD2F: 3D                             dcr     a
FD30: C2 2E FD                       jnz     sound_off_loop
FD33: 0D                             dcr     c
FD34: C2 27 FD                       jnz     sound
FD37: C9                             ret

                    ;----------------------------------------------------------------------------
                    ; Печать символа на экран и перемещение курсора
                    ;----------------------------------------------------------------------------
FD38:               print_char:                              ; FD38
FD38: 71                             mov     m, c            ; Выводим символ в видео ОЗУ
FD39: CD B9 FD                       call    move_right      ; Перемещаем курсор вправо
                    ; Если курсор вернулся в начало экрана -> скроллинг
FD3C: 7A                             mov     a, d
FD3D: FE 03                          cpi     3               ; Верхняя строка?
FD3F: C0                             rnz
FD40: 7B                             mov     a, e
FD41: FE 08                          cpi     8               ; Первая позиция?
FD43: C0                             rnz
FD44: CD E2 FD                       call    move_up         ; Переходим на нижнюю строку

                    ;----------------------------------------------------------------------------
                    ; Перевод строки (ПС).
                    ; Если курсор в нижней строке -> скроллинг экрана вверх на 1 строку.
                    ;----------------------------------------------------------------------------
FD47:               new_line:                                  ; FD47
FD47: 7A                             mov     a, d
FD48: FE 1B                          cpi     1Bh             ; 3+25-1 = самая нижняя строка
FD4A: C2 C5 FD                       jnz     move_down       ; Нет -> просто вниз
FD4D: E5                             push    h
FD4E: D5                             push    d

                    ; Смещение экрана на 1 строку вверх
FD4F: 21 C2 77                       lxi     h, video_memory+(78*3)+8   ; Начало 1-й видимой строки
FD52: 11 10 78                       lxi     d, video_memory+(78*4)+8   ; Начало 2-й видимой строки
FD55: 01 9E 07                       lxi     b, 25*78                   ; 25 строк по 78 символов

FD58:               scroll_loop:                             ; FD58
FD58: 1A                             ldax    d
FD59: 77                             mov     m, a
FD5A: 23                             inx     h
FD5B: 13                             inx     d
FD5C: 0B                             dcx     b
FD5D: 79                             mov     a, c
FD5E: B0                             ora     b
FD5F: C2 58 FD                       jnz     scroll_loop

FD62: D1                             pop     d
FD63: E1                             pop     h
FD64: C9                             ret

                    ;----------------------------------------------------------------------------
                    ; Обработка 1-го байта АР2-последовательности (должен быть "Y")
                    ;----------------------------------------------------------------------------
FD65:               ap2_byte_1:                                   ; FD65
FD65: 79                             mov     a, c
FD66: FE 59                          cpi     'Y'
FD68: C2 E9 FC                       jnz     reset_ap2_seq        ; Не "Y" -> сброс АР2
FD6B: CD B2 FD                       call    cursor_home
FD6E: 3E 02                          mvi     a, 2            ; Ожидаем 2-й байт
FD70: C3 EA FC                       jmp     update_ap2_and_exit

                    ;----------------------------------------------------------------------------
                    ; Обработка 2-го байта АР2-последовательности (смещение по Y + 20h)
                    ;----------------------------------------------------------------------------
FD73:               ap2_byte_2:                                  ; FD73
FD73: 79                             mov     a, c
FD74: D6 20                          sui     20h             ; Действительное смещение по Y
FD76: 4F                             mov     c, a

FD77:               ap2_move_y_loop:                         ; FD77
FD77: 0D                             dcr     c
FD78: 3E 04                          mvi     a, 4                ; Признак для следующего этапа
FD7A: FA EA FC                       jm      update_ap2_and_exit ; Все -> ожидаем 3-й байт (X)
FD7D: C5                             push    b
FD7E: CD C5 FD                       call    move_down
FD81: C1                             pop     b
FD82: C3 77 FD                       jmp     ap2_move_y_loop

                    ;----------------------------------------------------------------------------
                    ; Сохранение параметров курсора и выход из entry_putc
                    ;----------------------------------------------------------------------------
FD85:               set_cursor_and_exit:                        ; FD85
FD85: 22 00 76                       shld    cursor_addr
FD88: EB                             xchg
FD89: 22 02 76                       shld    cursor_xy
                    ; Передаем координаты курсора контроллеру ВГ75
FD8C: 3E 80                          mvi     a, 80h          ; Команда "установить курсор"
FD8E: 32 01 C0                       sta     vg75_cmd_reg
FD91: 7D                             mov     a, l            ; Координата X
FD92: 32 00 C0                       sta     vg75_params
FD95: 7C                             mov     a, h            ; Координата Y
FD96: 32 00 C0                       sta     vg75_params
FD99: E1                             pop     h
FD9A: D1                             pop     d
FD9B: C1                             pop     b
FD9C: F1                             pop     psw
FD9D: C9                             ret

                    ;----------------------------------------------------------------------------
                    ; Начало АР2-последовательности
                    ; Был прочитан код символа АР2, необходимо прочитать АР2 последовательность.
                    ; Реализована только одна АР2 последовательность:
                    ; Установка курсора в заданные координаты АР2+'Y'+(x+20h)+(y+20h):
                    ;   где  x - номер позиции в строке (0 - 63),
                    ;        y - номер строки (0 - 24).
                    ; Отсчет начинается с верхнего левого угла экрана.
                    ;----------------------------------------------------------------------------
FD9E:               ap2_seq_start:                             ; FD9E
FD9E: 3E 01                          mvi     a, 1              ; Ожидаем 1-й байт
FDA0: C3 EA FC                       jmp     update_ap2_and_exit

                    ;----------------------------------------------------------------------------
                    ; Инициализация дисплея (СТР).
                    ; Обработка управляющего символа инициализации дисплея СТР.
                    ; Очистка видео ОЗУ и установка курсора в начало.
                    ; Выполняются следующие действия:
                    ;   - вся экранная область ОЗУ (2342 байта) обнуляется,
                    ;   - курсор устанавливается в нулевую позицию.
                    ;  Очистка начинается с конечного адреса видео ОЗУ, с нижнего правого угла экрана.
                    ;----------------------------------------------------------------------------
FDA3:               clear_screen:                                ; FDA3
FDA3: 21 F4 7F                       lxi     h, video_memory_end
FDA6: 11 25 09                       lxi     d, video_mem_size+1

FDA9:               clear_screen_loop:                           ; FDA9
FDA9: AF                             xra     a
FDAA: 77                             mov     m, a
FDAB: 2B                             dcx     h
FDAC: 1B                             dcx     d
FDAD: 7B                             mov     a, e
FDAE: B2                             ora     d
FDAF: C2 A9 FD                       jnz     clear_screen_loop

                    ;----------------------------------------------------------------------------
                    ; Установка курсора в начальную позицию (верхний левый угол).
                    ; Реально: позиция X=8, Y=3 (с учетом служебных строк и отступа).
                    ;----------------------------------------------------------------------------
FDB2:               cursor_home:                           ; FDB2
FDB2: 11 08 03                       lxi     d, 308h
FDB5: 21 C2 77                       lxi     h, video_memory+(78*3)+8
FDB8: C9                             ret

                    ;----------------------------------------------------------------------------
                    ; Перемещение курсора вправо на одну позицию
                    ;----------------------------------------------------------------------------
FDB9:               move_right:                           ; FDB9
FDB9: 7B                             mov     a, e
FDBA: 23                             inx     h               ; Адрес в видео ОЗУ += 1
FDBB: 1C                             inr     e               ; Позиция X += 1
FDBC: FE 47                          cpi     8+64-1          ; Правая граница? (71)
FDBE: C0                             rnz
FDBF: 1E 08                          mvi     e, 8            ; Переход на левый край
FDC1: 01 C0 FF                       lxi     b, -64          ; Отмотка адреса
FDC4: 09                             dad     b

                    ;----------------------------------------------------------------------------
                    ; Перемещение курсора вниз на одну строку
                    ;----------------------------------------------------------------------------
FDC5:               move_down:                               ; FDC5
FDC5: 7A                             mov     a, d
FDC6: FE 1B                          cpi     1Bh             ; 3+25-1 = нижняя строка
FDC8: 01 4E 00                       lxi     b, 78           ; Смещение: +1 строка
FDCB: C2 D3 FD                       jnz     move_down_skip
FDCE: 16 02                          mvi     d, 2            ; Переход на верхнюю строку (будет 3)
FDD0: 01 B0 F8                       lxi     b, -24*78       ; Смещение наверх

FDD3:               move_down_skip:                          ; FDD3
FDD3: 14                             inr     d
FDD4: 09                             dad     b
FDD5: C9                             ret

                    ;----------------------------------------------------------------------------
                    ; Перемещение курсора влево на одну позицию
                    ;----------------------------------------------------------------------------
FDD6:               move_left:                               ; FDD6
FDD6: 7B                             mov     a, e
FDD7: 2B                             dcx     h
FDD8: 1D                             dcr     e
FDD9: FE 08                          cpi     8               ; Левая граница?
FDDB: C0                             rnz
FDDC: 1E 47                          mvi     e, 8+64-1       ; Переход на правый край (71)
FDDE: 01 40 00                       lxi     b, 64
FDE1: 09                             dad     b

                    ;----------------------------------------------------------------------------
                    ; Перемещение курсора вверх на одну строку
                    ;----------------------------------------------------------------------------
FDE2:               move_up:                                 ; FDE2
FDE2: 7A                             mov     a, d
FDE3: FE 03                          cpi     3               ; Верхняя строка?
FDE5: 01 B2 FF                       lxi     b, -78          ; Смещение: -1 строка
FDE8: C2 F0 FD                       jnz     move_up_skip
FDEB: 16 1C                          mvi     d, 1Bh+1        ; Переход на нижнюю строку (будет 1Bh)
FDED: 01 50 07                       lxi     b, 24*78        ; Смещение вниз

FDF0:               move_up_skip:                            ; FDF0
FDF0: 15                             dcr     d
FDF1: 09                             dad     b
FDF2: C9                             ret

                    ;----------------------------------------------------------------------------
                    ; Возврат каретки (ВК). Курсор в начало текущей строки.
                    ;----------------------------------------------------------------------------
FDF3:               carrage_return:                                  ; FDF3
FDF3: 7D                             mov     a, l
FDF4: 93                             sub     e               ; Вычитаем позицию в строке
FDF5: D2 F9 FD                       jnc     carrage_return_borrow
FDF8: 25                             dcr     h               ; Заем из старшего байта

FDF9:               carrage_return_borrow:                   ; FDF9
FDF9: 6F                             mov     l, a
FDFA: 1E 08                          mvi     e, 8            ; Первая позиция
FDFC: 01 08 00                       lxi     b, 8
FDFF: 09                             dad     b
FE00: C9                             ret

                    ;============================================================================
                    ; Опрос состояния клавиатуры.
                    ;   Выход: A = FFh - клавиша нажата, A = 0 - не нажата.
                    ; Реализует автоповтор и устранение дребезга контактов.
                    ;   Счетчик обращений:
                    ;     21          - устранение дребезга
                    ;     21+224      - начальная задержка автоповтора
                    ;     21+224+64*N - стандартный период автоповтора
                    ; Стандартная задержка между обращениями к подпрограмме составляет 31 такт.
                    ;============================================================================
FE01:               entry_kbhit:                             ; FE01
                    ; Проверка на нажатие [РУС/ЛАТ]
FE01: 3A 02 80                       lda     vv55_port_c
FE04: E6 80                          ani     80h
FE06: CA 0E FE                       jz      ruslat_not_pressed  ; Отпущена -> продолжаем
FE09: 3A 05 76                       lda     pressed_key         ; Если нажата и ранее была нажата
FE0C: B7                             ora     a                   ; другая клавиша,
FE0D: C0                             rnz                         ; то выходим

FE0E:               ruslat_not_pressed:                          ; FE0E
FE0E: E5                             push    h
FE0F: 2A 09 76                       lhld    keyboard_repeat  ; Параметры автоповтора (L=код, H=счетчик)
FE12: CD 72 FE                       call    entry_scan_kbd   ; Получить код клавиши
                                                              ;   FFh - не нажата
                                                              ;   FEh - [РУС/ЛАТ]
                                                              ;   xx  - код символа
FE15: BD                             cmp     l                ; Та же клавиша?
FE16: 6F                             mov     l, a
FE17: CA 2A FE                       jz      keyboard_retention        ; Да -> удержание

                    ; Клавиша отпущена или нажата другая
FE1A:               release_ruslat:                          ; FE1A
FE1A: 3E 01                          mvi     a, 1
FE1C: 32 0B 76                       sta     released        ; Признак отпускания
FE1F: 26 15                          mvi     h, bounce       ; Задержка дребезга (21)

FE21:               not_pr_exit:                             ; FE21
FE21: AF                             xra     a               ; Клавиша не нажата

FE22:               entry_kbhit_exit:                        ; FE22
FE22: 22 09 76                       shld    keyboard_repeat
FE25: E1                             pop     h
FE26: 32 05 76                       sta     pressed_key
FE29: C9                             ret

                    ;----------------------------------------------------------------------------
                    ; Обработка удержания клавиши
                    ;----------------------------------------------------------------------------
FE2A:               keyboard_retention:                        ; FE2A
FE2A: 25                             dcr     h                 ; Счетчик задержки--
FE2B: C2 21 FE                       jnz     not_pr_exit       ; Время не вышло -> не нажата
FE2E: 3C                             inr     a                 ; A = FFh?
FE2F: CA 22 FE                       jz      entry_kbhit_exit  ; Клавиша не нажата -> выход
FE32: 3C                             inr     a                 ; A = FEh?
FE33: CA 51 FE                       jz      process_ruslat    ; [РУС/ЛАТ] -> обработать

                    ; Нажата клавиша
FE36: C5                             push    b
FE37: 01 03 50                       lxi     b, kb_click     ; Щелчок нажатия
FE3A: CD 27 FD                       call    sound
FE3D: C1                             pop     b

FE3E: 3A 0B 76                       lda     released
FE41: 26 E0                          mvi     h, first_kb_delay ; Начальная задержка (224)
FE43: 3D                             dcr     a
FE44: 32 0B 76                       sta     released
FE47: CA 4C FE                       jz      keyboard_first_press       ; Первое нажатие -> начальная задержка
FE4A: 26 40                          mvi     h, regular_kb_delay ; Автоповтор -> стандартная (64)

FE4C:               keyboard_first_press:                               ; FE4C
FE4C: 3E FF                          mvi     a, 0FFh         ; Признак: клавиша нажата
FE4E: C3 22 FE                       jmp     entry_kbhit_exit

                    ;----------------------------------------------------------------------------
                    ; Обработка клавиши [РУС/ЛАТ]
                    ; Бесконечный цикл ожидания отпускания, затем инверсия флага.
                    ;----------------------------------------------------------------------------
FE51:               process_ruslat:                              ; FE51
FE51: 3A 02 80                       lda     vv55_port_c
FE54: E6 80                          ani     80h
FE56: CA 51 FE                       jz      process_ruslat      ; Ждем отпускания

FE59: 3A 06 76                       lda     ruslat_flag     ; Инверсия флага РУС/ЛАТ
FE5C: 2F                             cma
FE5D: 32 06 76                       sta     ruslat_flag
FE60: C3 1A FE                       jmp     release_ruslat

                    ;============================================================================
                    ; Ввод символа с клавиатуры.
                    ;   Выход: A - введенный символ.
                    ; Ожидает нажатия клавиши в бесконечном цикле.
                    ;============================================================================
FE63:               entry_getc:                              ; FE63
FE63: CD 01 FE                       call    entry_kbhit
FE66: B7                             ora     a
FE67: CA 63 FE                       jz      entry_getc      ; Не нажата -> ждем

FE6A: AF                             xra     a
FE6B: 32 05 76                       sta     pressed_key     ; Сбрасываем признак нажатия
FE6E: 3A 09 76                       lda     keyboard_repeat ; Код клавиши
FE71: C9                             ret

                    ;============================================================================
                    ; Сканирование матрицы клавиатуры 8x8.
                    ;   Выход: A = FFh  - не нажата
                    ;          A = FEh  - [РУС/ЛАТ]
                    ;          A = код  - код символа
                    ;============================================================================
FE72:               entry_scan_kbd:                          ; FE72
                    ; Проверка [РУС/ЛАТ]
FE72: 3A 02 80                       lda     vv55_port_c
FE75: E6 80                          ani     80h
FE77: C2 7D FE                       jnz     fast_kbd_contrl
FE7A: 3E FE                          mvi     a, 0FEh         ; Код [РУС/ЛАТ]
FE7C: C9                             ret

                    ; Быстрая проверка: нажата ли хоть одна клавиша?
FE7D:               fast_kbd_contrl:                         ; FE7D
FE7D: AF                             xra     a
FE7E: 32 00 80                       sta     vv55_port_a      ; Все линии сканирования = 0
FE81: 32 02 80                       sta     vv55_port_c      ; Погасить светодиод
FE84: 3A 06 76                       lda     ruslat_flag     ; Управление светодиодом РУС/ЛАТ
FE87: E6 01                          ani     1
FE89: F6 06                          ori     6               ; Команда: зажечь/погасить
FE8B: 32 03 80                       sta     vv55_ctrl
FE8E: 3A 01 80                       lda     vv55_port_b      ; Читаем состояние матрицы
FE91: 3C                             inr     a               ; Если хоть одна нажата, A != FFh
FE92: C2 97 FE                       jnz     key_is_pressed
FE95: 3D                             dcr     a               ; FFh = не нажата
FE96: C9                             ret

                    ; Сканирование матрицы клавиатуры
                    ;--------------------------------------------------------------------
                    ; Таблица скан-кодов клавиатуры РК:
                    ;  Столбец:   0    1     2     3     4     5     6     7
                    ;  Клавиша
                    ;  в столбце:
                    ;      0:     ↖︎    ТАБ   0     8     Ю     Х     П     Ь
                    ;      1:    СТР   ПС    1     9     А     И     Я     Ы
                    ;      2:    AP2   ВК    2     :     Б     Й     Р     З
                    ;      3:    F1    ЗБ    3     ;     Ц     К     С     Ш
                    ;      4:    F2    <-    4     ,     Д     Л     Т     Э
                    ;      5:    F3    ^     5     -     Е     М     У     Щ
                    ;      6:    F4    ->    6     .     Ф     Н     Ж     Ч
                    ;      7:    F5    v     7     /     Г     О     В     пробел
                    ;--------------------------------------------------------------------
                    ; Для столбцов 0 и 1 скан коды одинаковы потому, что перекодировка
                    ; происходит табличным способом в отдельных ветках для каждого столбца.
                    ; В столбцах 2 - 7 к номеру клавиши: 00SSSNNNb, где SSS - номер столбца,
                    ; NNN - номер клавиши, прибавляется 20h, чтобы упростить декодирование.

FE97:               key_is_pressed:                            ; FE97
FE97: E5                             push    h
FE98: 2E 01                          mvi     l, 1            ; Бегущая единица для сканирования
FE9A: 26 07                          mvi     h, 8-1          ; Количество столбцов

                    ; Цикл сканирования столбцов
FE9C:               scan_kbd_loop:                           ; FE9C
FE9C: 7D                             mov     a, l
FE9D: 0F                             rrc
FE9E: 6F                             mov     l, a
FE9F: 2F                             cma
FEA0: 32 00 80                       sta     vv55_port_a     ; Активируем столбец
FEA3: 3A 01 80                       lda     vv55_port_b     ; Читаем строки
FEA6: 2F                             cma
FEA7: B7                             ora     a
FEA8: C2 B3 FE                       jnz     scan_bounce     ; Есть нажатие -> устранение дребезга
FEAB: 25                             dcr     h
FEAC: F2 9C FE                       jp      scan_kbd_loop   ; Следующий столбец

                    ; Клавиша не нажата (или дребезг)
FEAF:               key_not_press:                           ; FEAF
FEAF: 3E FF                          mvi     a, 0FFh
FEB1: E1                             pop     h
FEB2: C9                             ret

                    ; Устранение дребезга: 32 повторных опроса
FEB3:               scan_bounce:                             ; FEB3
FEB3: 2E 20                          mvi     l, 32

FEB5:               scan_boun_loop:                          ; FEB5
FEB5: 3A 01 80                       lda     vv55_port_b
FEB8: 2F                             cma
FEB9: B7                             ora     a
FEBA: CA AF FE                       jz      key_not_press   ; Не подтвердилось -> не нажата
FEBD: 2D                             dcr     l
FEBE: C2 B5 FE                       jnz     scan_boun_loop

FEC1: 2E 08                          mvi     l, 8            ; Количество клавиш в столбце

                    ; Определение номера клавиши (из позиционного кода в порядковый)
                    ; Цикл определения номера клавиши в столбце
                    ; Здесь из позиционного кода, считанного с порта B D20, мы
                    ; получаем номер клавиши в столбце (начиная со старших номеров).
FEC3:               num_kbd_loop:                            ; FEC3
FEC3: 2D                             dcr     l
FEC4: 07                             rlc
FEC5: D2 C3 FE                       jnc     num_kbd_loop    ; Сдвигаем пока не найдем нажатую

FEC8: 7C                             mov     a, h            ; H <-> L (H = номер клавиши,
FEC9: 65                             mov     h, l            ; L = номер столбца)
FECA: 6F                             mov     l, a

                    ; Столбцы 0 и 1 - управляющие клавиши (перекодировка по таблице)
                    ; Колонки 0 и 1 это управляющие символы, используемые в стандартных
                    ; дисплеях. Для перекодировки используются специальные таблицы.
FECB: FE 01                          cpi     1               ; Столбец 1?
FECD: CA FA FE                       jz      make_1_column
FED0: DA F3 FE                       jc      make_0_column   ; Столбец 0?

                    ; Остальные клавиши используются для ввода отображаемых символов.
                    ; Столбцы 2-7: код = столбец*8 + 20h + номер клавиши
FED3: 07                             rlc
FED4: 07                             rlc
FED5: 07                             rlc
FED6: C6 20                          adi     20h
FED8: B4                             ora     h               ; Прибавляем номер клавиши
FED9: FE 5F                          cpi     5Fh             ; Пробел?
FEDB: C2 06 FF                       jnz     scan_others
FEDE: 3E 20                          mvi     a, 20h          ; Код пробела
FEE0: E1                             pop     h
FEE1: C9                             ret

                    ;----------------------------------------------------------------------------
                    ; Таблицы перекодировки управляющих клавиш
                    ;----------------------------------------------------------------------------
                    ; Столбец 1 (клавиши 0-7):
FEE2: 09            table_column_1:  db 9                    ; FEE2 - ТАБ
FEE3: 0A                             db 0Ah                  ; ПС
FEE4: 0D                             db 0Dh                  ; ВК
FEE5: 7F                             db 7Fh                  ; ЗБ
FEE6: 08                             db 8                    ; Стрелка влево
FEE7: 19                             db 19h                  ; Стрелка вверх
FEE8: 18                             db 18h                  ; Стрелка вправо
FEE9: 1A                             db 1Ah                  ; Стрелка вниз

                    ; Столбец 0 (клавиши 0-8):
FEEA: 0C            table_column_0:  db 0Ch                  ; FEEA - Курсор в начало (↖︎)
FEEB: 1F                             db 1Fh                  ; СТР
FEEC: 1B                             db 1Bh                  ; АР2
FEED: 00                             db 0                    ; F1
FEEE: 01                             db 1                    ; F2
FEEF: 02                             db 2                    ; F3
FEF0: 03                             db 3                    ; F4
FEF1: 04                             db 4                    ; F5 (нет на клавиатуре)
FEF2: 05                             db 5                    ; (не используется)

                    ; Перекодировка столбца 0
FEF3:               make_0_column:                           ; FEF3
FEF3: 7C                             mov     a, h
FEF4: 21 EA FE                       lxi     h, table_column_0
FEF7: C3 FE FE                       jmp     scan_table

                    ; Перекодировка столбца 1
FEFA:               make_1_column:                           ; FEFA
FEFA: 7C                             mov     a, h
FEFB: 21 E2 FE                       lxi     h, table_column_1

FEFE:               scan_table:                              ; FEFE
FEFE: 85                             add     l               ; Индекс в таблице
FEFF: 6F                             mov     l, a
FF00: 7E                             mov     a, m            ; Код из таблицы
FF01: FE 40                          cpi     40h             ; Управляющая клавиша?
FF03: E1                             pop     h
FF04: D8                             rc                      ; Да -> выход

FF05: E5                             push    h

                    ;----------------------------------------------------------------------------
                    ; Обработка клавиш с модификаторами [УС], [СС] и режимом РУС/ЛАТ.
                    ; Скан-код в L, состояние вспомогательных клавиш в H.
                    ; Здесь происходит выдача кода для всех клавиш, кроме управляющих, [ЗБ] и пробела.
                    ; Эти клавиши выдают 1 из 2-х символов в зависимости от состояния клавиш [СС], [УС]
                    ; и режима рус/лат. Скан код клавиши находится в L, состояние клавиш [СС] и [УС] в H.
                    ;----------------------------------------------------------------------------
FF06:               scan_others:                              ; FF06
FF06: 6F                             mov     l, a
FF07: 3A 02 80                       lda     vv55_port_c      ; Читаем модификаторы
FF0A: 67                             mov     h, a
FF0B: E6 40                          ani     40h             ; [УС] нажата?
FF0D: C2 1A FF                       jnz     rus_or_lat      ; Нет -> проверяем РУС/ЛАТ

                    ; Клавиша [УС]: буквы (40h-5Fh) -> управляющие коды (00h-1Fh)
                    ; Обслуживание модификационной клавиши [УС].
                    ; Она работает только с буквенными клавишами с кодом 40h - 5Fh.
                    ; Если нажата одна из этих клавиш в сочетании с [УС], то
                    ; выдается код на 30h меньше, т.е. 00h-1Fh (управляющие коды)
                    ; Признак рус/лат на управляющие коды не влияет.
FF10: 7D                             mov     a, l
FF11: FE 40                          cpi     40h
FF13: FA 3F FF                       jm      not_press_us_ss  ; Не буква -> пропускаем
FF16: E6 1F                          ani     1Fh             ; Обнуляем старшие биты
FF18: E1                             pop     h
FF19: C9                             ret

                    ; Режим РУС/ЛАТ: буквы переводятся в русский регистр (+20h)
                    ; Выдача кода в зависимости от состояния рус/лат
                    ; Действует только на буквенные клавиши со кодом  40h - 5Fh.
                    ; Если признак рус/лат в состоянии лат (=0), то скан код = код.
                    ; Если рус/лат = рус (=0FFh), то код больше от скан кода на 20h.
FF1A:               rus_or_lat:                              ; FF1A
FF1A: 3A 06 76                       lda     ruslat_flag
FF1D: B7                             ora     a
FF1E: CA 2A FF                       jz      scan_ss         ; ЛАТ -> без изменений
FF21: 7D                             mov     a, l
FF22: FE 40                          cpi     40h
FF24: FA 2A FF                       jm      scan_ss         ; Не буква -> без изменений
FF27: F6 20                          ori     20h             ; Перевод в русский регистр
FF29: 6F                             mov     l, a

                    ; Клавиша [СС]: буквы меняют раскладку, символы - верхний/нижний регистр
                    ; Обслуживание модификационной клавиши [СС].
                    ; Действие клавиши зависит от назначения (кода) клавиши.
                    ; Буквенные клавиши меняют раскладку рус <-> лат
                    ; Символьные и цифровые клавиши выдают один из 2-х символов
                    ; которые она обозначает.
FF2A:               scan_ss:                                  ; FF2A
FF2A: 7C                             mov     a, h
FF2B: E6 20                          ani     20h              ; [СС] нажата?
FF2D: C2 3F FF                       jnz     not_press_us_ss  ; Нет -> выход
FF30: 7D                             mov     a, l
FF31: FE 40                          cpi     40h
FF33: FA 3B FF                       jm      not_pressed_ss   ; Символ/цифра
FF36: 7D                             mov     a, l
FF37: EE 20                          xri     20h              ; Буква: лат <-> рус
FF39: E1                             pop     h
FF3A: C9                             ret

                    ; Если модификационные клавиши УС и СС не нажаты
FF3B:               not_pressed_ss:                           ; FF3B
FF3B: 7D                             mov     a, l             ; Цифры/символы: сбрасываем бит
FF3C: E6 2F                          ani     2Fh
FF3E: 6F                             mov     l, a

                    ; Модификаторы не нажаты
FF3F:               not_press_us_ss:                          ; FF3F
FF3F: 7D                             mov     a, l
FF40: FE 40                          cpi     40h              ; Буква?
FF42: E1                             pop     h
FF43: F0                             rp                       ; Да -> выход

                    ; Если модификационные клавиши УС и СС не нажаты
                    ; Обработка цифровых и символьных клавиш.
FF44: E5                             push    h
FF45: 6F                             mov     l, a            ; сохранить код в L
FF46: E6 0F                          ani     0Fh             ; сбрасываем ненужные биты
FF48: FE 0C                          cpi     0Ch             ; для клавиш с кодом
FF4A: 7D                             mov     a, l            ; 20h - 2Ch и 30h - 3Ch
FF4B: FA 50 FF                       jm      not_high        ; меняются местами
FF4E: EE 10                          xri     10h

FF50:               not_high:                                ; FF50
FF50: E1                             pop     h
FF51: C9                             ret

                    ;============================================================================
                    ; Определение верхней границы свободной памяти.
                    ; Используется для программ с большими буферами (например, текстовых).
                    ; Если в ОЗУ необходимо разместить какую либо программу (резидентную или
                    ; драйвер), ее размещают в верхней области (ниже служебной области Монитора),
                    ; а границу верхней свободной памяти устанавливают на байт ниже.
                    ; Это предотвратит затирание кода программы растущим буфером.
                    ;============================================================================
FF52:               entry_getlim:                            ; FF52
FF52: 2A 31 76                       lhld    memory_limit
FF55: C9                             ret

                    ;----------------------------------------------------------------------------
                    ; Установка верхней границы свободной памяти
                    ;----------------------------------------------------------------------------
FF56:               entry_setlim:                            ; FF56
FF56: 22 31 76                       shld    memory_limit
FF59: C9                             ret

                    ;============================================================================
                    ; Строковые константы (завершаются нулевым байтом)
                    ;============================================================================

                    ; Начальное сообщение при включении
FF5A: 1F 72 61 64   radio_prompt:    db 1Fh, "radio-86rk", 0  ; FF5A
FF5E: 69 6F 2D 38
FF62: 36 72 6B 00

                    ; Промт: готовность к вводу команды
FF66: 0D 0A         prompt:          dw 0A0Dh                 ; FF66
FF68: 2D 2D 3E 00                    db "-->", 0

                    ; Отступ для вывода адреса с новой строки (ВК, ПС, 4x стрелка вправо)
FF6C: 0D 0A         next_line_prefix: dw 0A0Dh                 ; FF6C
FF6E: 18 18 18 18                    db 18h, 18h, 18h, 18h, 0
FF72: 00

                    ; Имена регистров для команды X (с возвратом курсора на 6 строк вверх)
FF73: 0D 0A         registers:       dw 0A0Dh                 ; FF73
FF75: 20 50 43 2D                    db " PC-"
FF79: 0D 0A                          dw 0A0Dh
FF7B: 20 48 4C 2D                    db " HL-"
FF7F: 0D 0A                          dw 0A0Dh
FF81: 20 42 43 2D                    db " BC-"
FF85: 0D 0A                          dw 0A0Dh
FF87: 20 44 45 2D                    db " DE-"
FF8B: 0D 0A                          dw 0A0Dh
FF8D: 20 53 50 2D                    db " SP-"
FF91: 0D 0A                          dw 0A0Dh
FF93: 20 41 46 2D                    db " AF-"
FF97: 19 19 19 19                    db 19h, 19h, 19h, 19h, 19h, 19h, 0
FF9B: 19 19 00

                    ; Затирание предыдущего символа (backspace, пробел, backspace)
FF9E: 08 20 08 00   back_clear:      db 8, 20h, 8, 0          ; FF9E

                    ;============================================================================
                    ; Адрес возврата из отлаживаемой программы.
                    ; Выполняется при срабатывании RST 6, установленной командой G.
                    ; Сохраняет регистры в служебных ячейках (доступны по команде X)
                    ; и выводит на экран адрес останова.
                    ; Содержимое регистров сохраняется в служебных ячейках Монитора.
                    ; В последствии его можно просмотреть командой X Монитора.
                    ; На экран выдается адрес останова. И управление передается на
                    ; "горячий" старт Монитора (prompt_loop).
                    ;============================================================================
FFA2:               return_address:                          ; FFA2
FFA2: 22 16 76                       shld    hl_storage
FFA5: F5                             push    psw
FFA6: E1                             pop     h
FFA7: 22 1E 76                       shld    af_storage

                    ; Реальный адрес останова (из стека, на 1 больше из-за RST 6)
                    ; Возвращаем из стека реальный адрес останова, он может отличаться от
                    ; указанного в команде G. Он сохраняется в стеке, поскольку мы
                    ; используем команду RST 6, и больше на 1.
FFAA: E1                             pop     h
FFAB: 2B                             dcx     h
FFAC: 22 14 76                       shld    pc_storage

                    ; Сохраняем остальные регистры через SP
                    ; Через HL получаем значение указателя стека и используя последний
                    ; сохраняем значения всех остальных регистров
FFAF: 21 00 00                       lxi     h, 0
FFB2: 39                             dad     sp
FFB3: 31 1E 76                       lxi     sp, sp_storage+2
FFB6: E5                             push    h               ; SP
FFB7: D5                             push    d               ; DE
FFB8: C5                             push    b               ; BC

FFB9: 2A 14 76                       lhld    pc_storage
FFBC: 31 CF 76                       lxi     sp, stack_bottom
FFBF: CD 78 FB                       call    print_addr_from_hl ; Выводим адрес останова

                    ; Проверяем: совпадает ли реальный адрес с заданным в команде G?
                    ; Если они равны, восстанавливаем значение байта по этому адресу,
                    ; сохраненное ранее командой G.
FFC2: EB                             xchg
FFC3: 2A 23 76                       lhld    stop_addr
FFC6: CD 90 F9                       call    cmp_hl_de
FFC9: C2 6C F8                       jnz     prompt_loop     ; Не совпадает -> промт

                    ; Восстанавливаем байт по адресу останова
FFCC: 3A 25 76                       lda     stop_addr_value
FFCF: 77                             mov     m, a
FFD0: C3 6C F8                       jmp     prompt_loop

                    ;============================================================================
                    ; Команда X. Просмотр и изменение регистров процессора.
                    ; Выводит содержимое регистровых пар (PC, HL, BC, DE, SP, AF)
                    ; из служебных ячеек с возможностью изменения.
                    ;============================================================================
FFD3:               print_regs:                              ; FFD3
FFD3: 21 73 FF                       lxi     h, registers
FFD6: CD 22 F9                       call    entry_puts
FFD9: 21 14 76                       lxi     h, pc_storage
FFDC: 06 06                          mvi     b, 6            ; 6 регистровых пар

FFDE:               print_regs_loop:                         ; FFDE
FFDE: 5E                             mov     e, m            ; Содержимое
FFDF: 23                             inx     h               ; регистровой пары
FFE0: 56                             mov     d, m            ; в DE
FFE1: C5                             push    b
FFE2: E5                             push    h
FFE3: EB                             xchg
FFE4: CD 78 FB                       call    print_addr_from_hl ; Выводим значение
FFE7: CD EE F8                       call    input_string       ; Ввод нового значения
FFEA: D2 F6 FF                       jnc     regs_not_changed   ; Ничего не введено

FFED: CD 5A F9                       call    parse_hex          ; Новое значение в HL
FFF0: D1                             pop     d
FFF1: D5                             push    d
FFF2: EB                             xchg
FFF3: 72                             mov     m, d               ; Сохраняем
FFF4: 2B                             dcx     h
FFF5: 73                             mov     m, e

FFF6:               regs_not_changed:                           ; FFF6
FFF6: E1                             pop     h
FFF7: C1                             pop     b
FFF8: 05                             dcr     b
FFF9: 23                             inx     h
FFFA: C2 DE FF                       jnz     print_regs_loop
FFFD: C9                             ret

                    ;----------------------------------------------------------------------------
                    ; Неиспользуемые 2 байта в конце ПЗУ.
                    ; В журнале "Радио" №8 1986г.: FFFFh
                    ; В книге "Домашний компьютер" МРБ: 89BBh
                    ;----------------------------------------------------------------------------
FFFE: FF FF                          dw 0FFFFh

                                     end

